
ArduinoUNO.elf:     file format elf32-avr

Sections:
Idx Name          Size      VMA       LMA       File off  Algn
  0 .data         000000cc  00800100  00004a58  00004aec  2**0
                  CONTENTS, ALLOC, LOAD, DATA
  1 .text         00004a58  00000000  00000000  00000094  2**1
                  CONTENTS, ALLOC, LOAD, READONLY, CODE
  2 .bss          000003e4  008001cc  008001cc  00004bb8  2**0
                  ALLOC
  3 .comment      00000060  00000000  00000000  00004bb8  2**0
                  CONTENTS, READONLY
  4 .note.gnu.avr.deviceinfo 00000040  00000000  00000000  00004c18  2**2
                  CONTENTS, READONLY
  5 .debug_aranges 00000900  00000000  00000000  00004c58  2**0
                  CONTENTS, READONLY, DEBUGGING
  6 .debug_info   00023035  00000000  00000000  00005558  2**0
                  CONTENTS, READONLY, DEBUGGING
  7 .debug_abbrev 0000454a  00000000  00000000  0002858d  2**0
                  CONTENTS, READONLY, DEBUGGING
  8 .debug_line   0000423c  00000000  00000000  0002cad7  2**0
                  CONTENTS, READONLY, DEBUGGING
  9 .debug_frame  000025d8  00000000  00000000  00030d14  2**2
                  CONTENTS, READONLY, DEBUGGING
 10 .debug_str    000056b7  00000000  00000000  000332ec  2**0
                  CONTENTS, READONLY, DEBUGGING
 11 .debug_loc    0000f4bc  00000000  00000000  000389a3  2**0
                  CONTENTS, READONLY, DEBUGGING
 12 .debug_ranges 00000bf0  00000000  00000000  00047e5f  2**0
                  CONTENTS, READONLY, DEBUGGING

Disassembly of section .text:

00000000 <__vectors>:
       0:	0c 94 a0 00 	jmp	0x140	; 0x140 <__ctors_end>
       4:	0c 94 a8 06 	jmp	0xd50	; 0xd50 <__vector_1>
       8:	0c 94 d5 06 	jmp	0xdaa	; 0xdaa <__vector_2>
       c:	0c 94 c8 00 	jmp	0x190	; 0x190 <__bad_interrupt>
      10:	0c 94 26 23 	jmp	0x464c	; 0x464c <__vector_4>
      14:	0c 94 c8 00 	jmp	0x190	; 0x190 <__bad_interrupt>
      18:	0c 94 c8 00 	jmp	0x190	; 0x190 <__bad_interrupt>
      1c:	0c 94 29 06 	jmp	0xc52	; 0xc52 <__vector_7>
      20:	0c 94 c8 00 	jmp	0x190	; 0x190 <__bad_interrupt>
      24:	0c 94 c8 00 	jmp	0x190	; 0x190 <__bad_interrupt>
      28:	0c 94 c8 00 	jmp	0x190	; 0x190 <__bad_interrupt>
      2c:	0c 94 c8 00 	jmp	0x190	; 0x190 <__bad_interrupt>
      30:	0c 94 c8 00 	jmp	0x190	; 0x190 <__bad_interrupt>
      34:	0c 94 56 22 	jmp	0x44ac	; 0x44ac <__vector_13>
      38:	0c 94 59 0a 	jmp	0x14b2	; 0x14b2 <__vector_14>
      3c:	0c 94 c8 00 	jmp	0x190	; 0x190 <__bad_interrupt>
      40:	0c 94 02 07 	jmp	0xe04	; 0xe04 <__vector_16>
      44:	0c 94 c8 00 	jmp	0x190	; 0x190 <__bad_interrupt>
      48:	0c 94 c2 02 	jmp	0x584	; 0x584 <__vector_18>
      4c:	0c 94 07 03 	jmp	0x60e	; 0x60e <__vector_19>
      50:	0c 94 c8 00 	jmp	0x190	; 0x190 <__bad_interrupt>
      54:	0c 94 c8 00 	jmp	0x190	; 0x190 <__bad_interrupt>
      58:	0c 94 c8 00 	jmp	0x190	; 0x190 <__bad_interrupt>
      5c:	0c 94 c8 00 	jmp	0x190	; 0x190 <__bad_interrupt>
      60:	0c 94 c8 00 	jmp	0x190	; 0x190 <__bad_interrupt>
      64:	0c 94 c8 00 	jmp	0x190	; 0x190 <__bad_interrupt>

00000068 <__trampolines_end>:
      68:	02 00       	.word	0x0002	; ????

00000069 <digital_pin_to_timer_PGM>:
      69:	00 00 00 07 00 02 01 00 00 03 04 06 00 00 00 00     ................
      79:	00 00 00 00                                         ....

0000007d <digital_pin_to_bit_mask_PGM>:
      7d:	01 02 04 08 10 20 40 80 01 02 04 08 10 20 01 02     ..... @...... ..
      8d:	04 08 10 20                                         ... 

00000091 <digital_pin_to_port_PGM>:
      91:	04 04 04 04 04 04 04 04 02 02 02 02 02 02 03 03     ................
      a1:	03 03 03 03                                         ....

000000a5 <port_to_input_PGM>:
      a5:	00 00 00 00 23 00 26 00 29 00                       ....#.&.).

000000af <port_to_output_PGM>:
      af:	00 00 00 00 25 00 28 00 2b 00                       ....%.(.+.

000000b9 <port_to_mode_PGM>:
      b9:	00 00 00 00 24 00 27 00 2a 00                       ....$.'.*.

000000c3 <_ZZN6SdFile10make83NameEPKcPhE3__c>:
      c3:	7c 3c 3e 5e 2b 3d 3f 2f 5b 5d 3b 2c 2a 22 5c 00     |<>^+=?/[];,*"\.

000000d3 <_ZZ5setupE3__c_1>:
      d3:	53 44 20 66 61 69 6c 65 64 2c 20 6f 72 20 6e 6f     SD failed, or no
      e3:	74 20 70 72 65 73 65 6e 74 00                       t present.

000000ed <_ZZ5setupE3__c_0>:
      ed:	56 53 31 30 35 33 20 72 65 61 64 79 21 00           VS1053 ready!.

000000fb <_ZZ5setupE3__c>:
      fb:	43 6f 75 6c 64 6e 27 74 20 66 69 6e 64 20 56 53     Couldn't find VS
     10b:	31 30 35 33 2c 20 64 6f 20 79 6f 75 20 68 61 76     1053, do you hav
     11b:	65 20 74 68 65 20 72 69 67 68 74 20 70 69 6e 73     e the right pins
     12b:	20 64 65 66 69 6e 65 64 3f 00 00                     defined?..

00000136 <__ctors_start>:
     136:	0b 04       	cpc	r0, r11
     138:	95 04       	cpc	r9, r5
     13a:	6b 10       	cpse	r6, r11
     13c:	eb 13       	cpse	r30, r27
     13e:	8d 24       	eor	r8, r13

00000140 <__ctors_end>:
     140:	11 24       	eor	r1, r1
     142:	1f be       	out	0x3f, r1	; 63
     144:	cf ef       	ldi	r28, 0xFF	; 255
     146:	d8 e0       	ldi	r29, 0x08	; 8
     148:	de bf       	out	0x3e, r29	; 62
     14a:	cd bf       	out	0x3d, r28	; 61

0000014c <__do_copy_data>:
     14c:	11 e0       	ldi	r17, 0x01	; 1
     14e:	a0 e0       	ldi	r26, 0x00	; 0
     150:	b1 e0       	ldi	r27, 0x01	; 1
     152:	e8 e5       	ldi	r30, 0x58	; 88
     154:	fa e4       	ldi	r31, 0x4A	; 74
     156:	02 c0       	rjmp	.+4      	; 0x15c <__do_copy_data+0x10>
     158:	05 90       	lpm	r0, Z+
     15a:	0d 92       	st	X+, r0
     15c:	ac 3c       	cpi	r26, 0xCC	; 204
     15e:	b1 07       	cpc	r27, r17
     160:	d9 f7       	brne	.-10     	; 0x158 <__do_copy_data+0xc>

00000162 <__do_clear_bss>:
     162:	25 e0       	ldi	r18, 0x05	; 5
     164:	ac ec       	ldi	r26, 0xCC	; 204
     166:	b1 e0       	ldi	r27, 0x01	; 1
     168:	01 c0       	rjmp	.+2      	; 0x16c <.do_clear_bss_start>

0000016a <.do_clear_bss_loop>:
     16a:	1d 92       	st	X+, r1

0000016c <.do_clear_bss_start>:
     16c:	a0 3b       	cpi	r26, 0xB0	; 176
     16e:	b2 07       	cpc	r27, r18
     170:	e1 f7       	brne	.-8      	; 0x16a <.do_clear_bss_loop>

00000172 <__do_global_ctors>:
     172:	10 e0       	ldi	r17, 0x00	; 0
     174:	c0 ea       	ldi	r28, 0xA0	; 160
     176:	d0 e0       	ldi	r29, 0x00	; 0
     178:	04 c0       	rjmp	.+8      	; 0x182 <__do_global_ctors+0x10>
     17a:	21 97       	sbiw	r28, 0x01	; 1
     17c:	fe 01       	movw	r30, r28
     17e:	0e 94 ee 24 	call	0x49dc	; 0x49dc <__tablejump2__>
     182:	cb 39       	cpi	r28, 0x9B	; 155
     184:	d1 07       	cpc	r29, r17
     186:	c9 f7       	brne	.-14     	; 0x17a <__do_global_ctors+0x8>
     188:	0e 94 a1 04 	call	0x942	; 0x942 <main>
     18c:	0c 94 2a 25 	jmp	0x4a54	; 0x4a54 <_exit>

00000190 <__bad_interrupt>:
     190:	0c 94 00 00 	jmp	0	; 0x0 <__vectors>

00000194 <malloc>:
     194:	cf 93       	push	r28
     196:	df 93       	push	r29
     198:	ac 01       	movw	r20, r24
     19a:	82 30       	cpi	r24, 0x02	; 2
     19c:	91 05       	cpc	r25, r1
     19e:	10 f4       	brcc	.+4      	; 0x1a4 <malloc+0x10>
     1a0:	42 e0       	ldi	r20, 0x02	; 2
     1a2:	50 e0       	ldi	r21, 0x00	; 0
     1a4:	e0 91 ae 05 	lds	r30, 0x05AE
     1a8:	f0 91 af 05 	lds	r31, 0x05AF
     1ac:	30 97       	sbiw	r30, 0x00	; 0
     1ae:	09 f4       	brne	.+2      	; 0x1b2 <malloc+0x1e>
     1b0:	59 c0       	rjmp	.+178    	; 0x264 <malloc+0xd0>
     1b2:	80 e0       	ldi	r24, 0x00	; 0
     1b4:	90 e0       	ldi	r25, 0x00	; 0
     1b6:	a0 e0       	ldi	r26, 0x00	; 0
     1b8:	b0 e0       	ldi	r27, 0x00	; 0
     1ba:	20 81       	ld	r18, Z
     1bc:	31 81       	ldd	r19, Z+1	; 0x01
     1be:	24 17       	cp	r18, r20
     1c0:	35 07       	cpc	r19, r21
     1c2:	10 f1       	brcs	.+68     	; 0x208 <malloc+0x74>
     1c4:	42 17       	cp	r20, r18
     1c6:	53 07       	cpc	r21, r19
     1c8:	91 f4       	brne	.+36     	; 0x1ee <malloc+0x5a>
     1ca:	10 97       	sbiw	r26, 0x00	; 0
     1cc:	39 f0       	breq	.+14     	; 0x1dc <malloc+0x48>
     1ce:	82 81       	ldd	r24, Z+2	; 0x02
     1d0:	93 81       	ldd	r25, Z+3	; 0x03
     1d2:	13 96       	adiw	r26, 0x03	; 3
     1d4:	9c 93       	st	X, r25
     1d6:	8e 93       	st	-X, r24
     1d8:	12 97       	sbiw	r26, 0x02	; 2
     1da:	06 c0       	rjmp	.+12     	; 0x1e8 <malloc+0x54>
     1dc:	82 81       	ldd	r24, Z+2	; 0x02
     1de:	93 81       	ldd	r25, Z+3	; 0x03
     1e0:	90 93 af 05 	sts	0x05AF, r25
     1e4:	80 93 ae 05 	sts	0x05AE, r24
     1e8:	cf 01       	movw	r24, r30
     1ea:	02 96       	adiw	r24, 0x02	; 2
     1ec:	7d c0       	rjmp	.+250    	; 0x2e8 <malloc+0x154>
     1ee:	00 97       	sbiw	r24, 0x00	; 0
     1f0:	21 f0       	breq	.+8      	; 0x1fa <malloc+0x66>
     1f2:	28 17       	cp	r18, r24
     1f4:	39 07       	cpc	r19, r25
     1f6:	28 f0       	brcs	.+10     	; 0x202 <malloc+0x6e>
     1f8:	07 c0       	rjmp	.+14     	; 0x208 <malloc+0x74>
     1fa:	c9 01       	movw	r24, r18
     1fc:	bd 01       	movw	r22, r26
     1fe:	ef 01       	movw	r28, r30
     200:	03 c0       	rjmp	.+6      	; 0x208 <malloc+0x74>
     202:	c9 01       	movw	r24, r18
     204:	bd 01       	movw	r22, r26
     206:	ef 01       	movw	r28, r30
     208:	22 81       	ldd	r18, Z+2	; 0x02
     20a:	33 81       	ldd	r19, Z+3	; 0x03
     20c:	21 15       	cp	r18, r1
     20e:	31 05       	cpc	r19, r1
     210:	19 f0       	breq	.+6      	; 0x218 <malloc+0x84>
     212:	df 01       	movw	r26, r30
     214:	f9 01       	movw	r30, r18
     216:	d1 cf       	rjmp	.-94     	; 0x1ba <malloc+0x26>
     218:	00 97       	sbiw	r24, 0x00	; 0
     21a:	21 f1       	breq	.+72     	; 0x264 <malloc+0xd0>
     21c:	9c 01       	movw	r18, r24
     21e:	24 1b       	sub	r18, r20
     220:	35 0b       	sbc	r19, r21
     222:	24 30       	cpi	r18, 0x04	; 4
     224:	31 05       	cpc	r19, r1
     226:	90 f4       	brcc	.+36     	; 0x24c <malloc+0xb8>
     228:	61 15       	cp	r22, r1
     22a:	71 05       	cpc	r23, r1
     22c:	31 f0       	breq	.+12     	; 0x23a <malloc+0xa6>
     22e:	8a 81       	ldd	r24, Y+2	; 0x02
     230:	9b 81       	ldd	r25, Y+3	; 0x03
     232:	fb 01       	movw	r30, r22
     234:	93 83       	std	Z+3, r25	; 0x03
     236:	82 83       	std	Z+2, r24	; 0x02
     238:	06 c0       	rjmp	.+12     	; 0x246 <malloc+0xb2>
     23a:	8a 81       	ldd	r24, Y+2	; 0x02
     23c:	9b 81       	ldd	r25, Y+3	; 0x03
     23e:	90 93 af 05 	sts	0x05AF, r25
     242:	80 93 ae 05 	sts	0x05AE, r24
     246:	ce 01       	movw	r24, r28
     248:	02 96       	adiw	r24, 0x02	; 2
     24a:	4e c0       	rjmp	.+156    	; 0x2e8 <malloc+0x154>
     24c:	ce 01       	movw	r24, r28
     24e:	82 0f       	add	r24, r18
     250:	93 1f       	adc	r25, r19
     252:	fc 01       	movw	r30, r24
     254:	41 93       	st	Z+, r20
     256:	51 93       	st	Z+, r21
     258:	cf 01       	movw	r24, r30
     25a:	22 50       	subi	r18, 0x02	; 2
     25c:	31 09       	sbc	r19, r1
     25e:	39 83       	std	Y+1, r19	; 0x01
     260:	28 83       	st	Y, r18
     262:	42 c0       	rjmp	.+132    	; 0x2e8 <malloc+0x154>
     264:	80 91 ac 05 	lds	r24, 0x05AC
     268:	90 91 ad 05 	lds	r25, 0x05AD
     26c:	89 2b       	or	r24, r25
     26e:	41 f4       	brne	.+16     	; 0x280 <malloc+0xec>
     270:	80 91 02 01 	lds	r24, 0x0102
     274:	90 91 03 01 	lds	r25, 0x0103
     278:	90 93 ad 05 	sts	0x05AD, r25
     27c:	80 93 ac 05 	sts	0x05AC, r24
     280:	20 91 00 01 	lds	r18, 0x0100
     284:	30 91 01 01 	lds	r19, 0x0101
     288:	21 15       	cp	r18, r1
     28a:	31 05       	cpc	r19, r1
     28c:	41 f4       	brne	.+16     	; 0x29e <malloc+0x10a>
     28e:	2d b7       	in	r18, 0x3d	; 61
     290:	3e b7       	in	r19, 0x3e	; 62
     292:	80 91 04 01 	lds	r24, 0x0104
     296:	90 91 05 01 	lds	r25, 0x0105
     29a:	28 1b       	sub	r18, r24
     29c:	39 0b       	sbc	r19, r25
     29e:	80 91 ac 05 	lds	r24, 0x05AC
     2a2:	90 91 ad 05 	lds	r25, 0x05AD
     2a6:	82 17       	cp	r24, r18
     2a8:	93 07       	cpc	r25, r19
     2aa:	b0 f4       	brcc	.+44     	; 0x2d8 <malloc+0x144>
     2ac:	28 1b       	sub	r18, r24
     2ae:	39 0b       	sbc	r19, r25
     2b0:	24 17       	cp	r18, r20
     2b2:	35 07       	cpc	r19, r21
     2b4:	a0 f0       	brcs	.+40     	; 0x2de <malloc+0x14a>
     2b6:	ba 01       	movw	r22, r20
     2b8:	6e 5f       	subi	r22, 0xFE	; 254
     2ba:	7f 4f       	sbci	r23, 0xFF	; 255
     2bc:	26 17       	cp	r18, r22
     2be:	37 07       	cpc	r19, r23
     2c0:	88 f0       	brcs	.+34     	; 0x2e4 <malloc+0x150>
     2c2:	68 0f       	add	r22, r24
     2c4:	79 1f       	adc	r23, r25
     2c6:	70 93 ad 05 	sts	0x05AD, r23
     2ca:	60 93 ac 05 	sts	0x05AC, r22
     2ce:	fc 01       	movw	r30, r24
     2d0:	41 93       	st	Z+, r20
     2d2:	51 93       	st	Z+, r21
     2d4:	cf 01       	movw	r24, r30
     2d6:	08 c0       	rjmp	.+16     	; 0x2e8 <malloc+0x154>
     2d8:	80 e0       	ldi	r24, 0x00	; 0
     2da:	90 e0       	ldi	r25, 0x00	; 0
     2dc:	05 c0       	rjmp	.+10     	; 0x2e8 <malloc+0x154>
     2de:	80 e0       	ldi	r24, 0x00	; 0
     2e0:	90 e0       	ldi	r25, 0x00	; 0
     2e2:	02 c0       	rjmp	.+4      	; 0x2e8 <malloc+0x154>
     2e4:	80 e0       	ldi	r24, 0x00	; 0
     2e6:	90 e0       	ldi	r25, 0x00	; 0
     2e8:	df 91       	pop	r29
     2ea:	cf 91       	pop	r28
     2ec:	08 95       	ret

000002ee <free>:
     2ee:	0f 93       	push	r16
     2f0:	1f 93       	push	r17
     2f2:	cf 93       	push	r28
     2f4:	df 93       	push	r29
     2f6:	00 97       	sbiw	r24, 0x00	; 0
     2f8:	09 f4       	brne	.+2      	; 0x2fc <free+0xe>
     2fa:	9c c0       	rjmp	.+312    	; 0x434 <free+0x146>
     2fc:	dc 01       	movw	r26, r24
     2fe:	12 97       	sbiw	r26, 0x02	; 2
     300:	13 96       	adiw	r26, 0x03	; 3
     302:	1c 92       	st	X, r1
     304:	1e 92       	st	-X, r1
     306:	12 97       	sbiw	r26, 0x02	; 2
     308:	e0 91 ae 05 	lds	r30, 0x05AE
     30c:	f0 91 af 05 	lds	r31, 0x05AF
     310:	30 97       	sbiw	r30, 0x00	; 0
     312:	29 f0       	breq	.+10     	; 0x31e <free+0x30>
     314:	ea 17       	cp	r30, r26
     316:	fb 07       	cpc	r31, r27
     318:	18 f5       	brcc	.+70     	; 0x360 <free+0x72>
     31a:	8f 01       	movw	r16, r30
     31c:	1b c0       	rjmp	.+54     	; 0x354 <free+0x66>
     31e:	fc 01       	movw	r30, r24
     320:	32 97       	sbiw	r30, 0x02	; 2
     322:	20 81       	ld	r18, Z
     324:	31 81       	ldd	r19, Z+1	; 0x01
     326:	82 0f       	add	r24, r18
     328:	93 1f       	adc	r25, r19
     32a:	20 91 ac 05 	lds	r18, 0x05AC
     32e:	30 91 ad 05 	lds	r19, 0x05AD
     332:	28 17       	cp	r18, r24
     334:	39 07       	cpc	r19, r25
     336:	29 f4       	brne	.+10     	; 0x342 <free+0x54>
     338:	b0 93 ad 05 	sts	0x05AD, r27
     33c:	a0 93 ac 05 	sts	0x05AC, r26
     340:	79 c0       	rjmp	.+242    	; 0x434 <free+0x146>
     342:	b0 93 af 05 	sts	0x05AF, r27
     346:	a0 93 ae 05 	sts	0x05AE, r26
     34a:	74 c0       	rjmp	.+232    	; 0x434 <free+0x146>
     34c:	ea 17       	cp	r30, r26
     34e:	fb 07       	cpc	r31, r27
     350:	48 f4       	brcc	.+18     	; 0x364 <free+0x76>
     352:	8f 01       	movw	r16, r30
     354:	e8 01       	movw	r28, r16
     356:	ea 81       	ldd	r30, Y+2	; 0x02
     358:	fb 81       	ldd	r31, Y+3	; 0x03
     35a:	30 97       	sbiw	r30, 0x00	; 0
     35c:	b9 f7       	brne	.-18     	; 0x34c <free+0x5e>
     35e:	25 c0       	rjmp	.+74     	; 0x3aa <free+0xbc>
     360:	00 e0       	ldi	r16, 0x00	; 0
     362:	10 e0       	ldi	r17, 0x00	; 0
     364:	9c 01       	movw	r18, r24
     366:	22 50       	subi	r18, 0x02	; 2
     368:	31 09       	sbc	r19, r1
     36a:	e9 01       	movw	r28, r18
     36c:	fb 83       	std	Y+3, r31	; 0x03
     36e:	ea 83       	std	Y+2, r30	; 0x02
     370:	28 81       	ld	r18, Y
     372:	39 81       	ldd	r19, Y+1	; 0x01
     374:	ac 01       	movw	r20, r24
     376:	42 0f       	add	r20, r18
     378:	53 1f       	adc	r21, r19
     37a:	e4 17       	cp	r30, r20
     37c:	f5 07       	cpc	r31, r21
     37e:	69 f4       	brne	.+26     	; 0x39a <free+0xac>
     380:	60 81       	ld	r22, Z
     382:	71 81       	ldd	r23, Z+1	; 0x01
     384:	26 0f       	add	r18, r22
     386:	37 1f       	adc	r19, r23
     388:	2e 5f       	subi	r18, 0xFE	; 254
     38a:	3f 4f       	sbci	r19, 0xFF	; 255
     38c:	ec 01       	movw	r28, r24
     38e:	3a 93       	st	-Y, r19
     390:	2a 93       	st	-Y, r18
     392:	22 81       	ldd	r18, Z+2	; 0x02
     394:	33 81       	ldd	r19, Z+3	; 0x03
     396:	3b 83       	std	Y+3, r19	; 0x03
     398:	2a 83       	std	Y+2, r18	; 0x02
     39a:	01 15       	cp	r16, r1
     39c:	11 05       	cpc	r17, r1
     39e:	29 f4       	brne	.+10     	; 0x3aa <free+0xbc>
     3a0:	b0 93 af 05 	sts	0x05AF, r27
     3a4:	a0 93 ae 05 	sts	0x05AE, r26
     3a8:	45 c0       	rjmp	.+138    	; 0x434 <free+0x146>
     3aa:	f8 01       	movw	r30, r16
     3ac:	b3 83       	std	Z+3, r27	; 0x03
     3ae:	a2 83       	std	Z+2, r26	; 0x02
     3b0:	21 91       	ld	r18, Z+
     3b2:	31 91       	ld	r19, Z+
     3b4:	e2 0f       	add	r30, r18
     3b6:	f3 1f       	adc	r31, r19
     3b8:	ae 17       	cp	r26, r30
     3ba:	bf 07       	cpc	r27, r31
     3bc:	89 f4       	brne	.+34     	; 0x3e0 <free+0xf2>
     3be:	fc 01       	movw	r30, r24
     3c0:	92 91       	ld	r25, -Z
     3c2:	82 91       	ld	r24, -Z
     3c4:	28 0f       	add	r18, r24
     3c6:	39 1f       	adc	r19, r25
     3c8:	2e 5f       	subi	r18, 0xFE	; 254
     3ca:	3f 4f       	sbci	r19, 0xFF	; 255
     3cc:	d8 01       	movw	r26, r16
     3ce:	11 96       	adiw	r26, 0x01	; 1
     3d0:	3c 93       	st	X, r19
     3d2:	2e 93       	st	-X, r18
     3d4:	82 81       	ldd	r24, Z+2	; 0x02
     3d6:	93 81       	ldd	r25, Z+3	; 0x03
     3d8:	13 96       	adiw	r26, 0x03	; 3
     3da:	9c 93       	st	X, r25
     3dc:	8e 93       	st	-X, r24
     3de:	12 97       	sbiw	r26, 0x02	; 2
     3e0:	e0 91 ae 05 	lds	r30, 0x05AE
     3e4:	f0 91 af 05 	lds	r31, 0x05AF
     3e8:	a0 e0       	ldi	r26, 0x00	; 0
     3ea:	b0 e0       	ldi	r27, 0x00	; 0
     3ec:	82 81       	ldd	r24, Z+2	; 0x02
     3ee:	93 81       	ldd	r25, Z+3	; 0x03
     3f0:	00 97       	sbiw	r24, 0x00	; 0
     3f2:	19 f0       	breq	.+6      	; 0x3fa <free+0x10c>
     3f4:	df 01       	movw	r26, r30
     3f6:	fc 01       	movw	r30, r24
     3f8:	f9 cf       	rjmp	.-14     	; 0x3ec <free+0xfe>
     3fa:	80 81       	ld	r24, Z
     3fc:	91 81       	ldd	r25, Z+1	; 0x01
     3fe:	9f 01       	movw	r18, r30
     400:	2e 5f       	subi	r18, 0xFE	; 254
     402:	3f 4f       	sbci	r19, 0xFF	; 255
     404:	82 0f       	add	r24, r18
     406:	93 1f       	adc	r25, r19
     408:	20 91 ac 05 	lds	r18, 0x05AC
     40c:	30 91 ad 05 	lds	r19, 0x05AD
     410:	28 17       	cp	r18, r24
     412:	39 07       	cpc	r19, r25
     414:	79 f4       	brne	.+30     	; 0x434 <free+0x146>
     416:	10 97       	sbiw	r26, 0x00	; 0
     418:	29 f4       	brne	.+10     	; 0x424 <free+0x136>
     41a:	10 92 af 05 	sts	0x05AF, r1
     41e:	10 92 ae 05 	sts	0x05AE, r1
     422:	04 c0       	rjmp	.+8      	; 0x42c <free+0x13e>
     424:	13 96       	adiw	r26, 0x03	; 3
     426:	1c 92       	st	X, r1
     428:	1e 92       	st	-X, r1
     42a:	12 97       	sbiw	r26, 0x02	; 2
     42c:	f0 93 ad 05 	sts	0x05AD, r31
     430:	e0 93 ac 05 	sts	0x05AC, r30
     434:	df 91       	pop	r29
     436:	cf 91       	pop	r28
     438:	1f 91       	pop	r17
     43a:	0f 91       	pop	r16
     43c:	08 95       	ret

0000043e <_ZN14HardwareSerial9availableEv>:
     43e:	fc 01       	movw	r30, r24
     440:	24 85       	ldd	r18, Z+12	; 0x0c
     442:	35 85       	ldd	r19, Z+13	; 0x0d
     444:	f9 01       	movw	r30, r18
     446:	e0 5c       	subi	r30, 0xC0	; 192
     448:	ff 4f       	sbci	r31, 0xFF	; 255
     44a:	80 81       	ld	r24, Z
     44c:	91 81       	ldd	r25, Z+1	; 0x01
     44e:	32 96       	adiw	r30, 0x02	; 2
     450:	20 81       	ld	r18, Z
     452:	31 81       	ldd	r19, Z+1	; 0x01
     454:	80 5c       	subi	r24, 0xC0	; 192
     456:	9f 4f       	sbci	r25, 0xFF	; 255
     458:	82 1b       	sub	r24, r18
     45a:	93 0b       	sbc	r25, r19
     45c:	8f 73       	andi	r24, 0x3F	; 63
     45e:	90 78       	andi	r25, 0x80	; 128
     460:	99 23       	and	r25, r25
     462:	24 f4       	brge	.+8      	; 0x46c <_ZN14HardwareSerial9availableEv+0x2e>
     464:	01 97       	sbiw	r24, 0x01	; 1
     466:	80 6c       	ori	r24, 0xC0	; 192
     468:	9f 6f       	ori	r25, 0xFF	; 255
     46a:	01 96       	adiw	r24, 0x01	; 1
     46c:	08 95       	ret

0000046e <_ZN14HardwareSerial4peekEv>:
     46e:	fc 01       	movw	r30, r24
     470:	84 85       	ldd	r24, Z+12	; 0x0c
     472:	95 85       	ldd	r25, Z+13	; 0x0d
     474:	fc 01       	movw	r30, r24
     476:	e0 5c       	subi	r30, 0xC0	; 192
     478:	ff 4f       	sbci	r31, 0xFF	; 255
     47a:	40 81       	ld	r20, Z
     47c:	51 81       	ldd	r21, Z+1	; 0x01
     47e:	32 96       	adiw	r30, 0x02	; 2
     480:	20 81       	ld	r18, Z
     482:	31 81       	ldd	r19, Z+1	; 0x01
     484:	42 17       	cp	r20, r18
     486:	53 07       	cpc	r21, r19
     488:	41 f0       	breq	.+16     	; 0x49a <_ZN14HardwareSerial4peekEv+0x2c>
     48a:	20 81       	ld	r18, Z
     48c:	31 81       	ldd	r19, Z+1	; 0x01
     48e:	fc 01       	movw	r30, r24
     490:	e2 0f       	add	r30, r18
     492:	f3 1f       	adc	r31, r19
     494:	80 81       	ld	r24, Z
     496:	90 e0       	ldi	r25, 0x00	; 0
     498:	08 95       	ret
     49a:	8f ef       	ldi	r24, 0xFF	; 255
     49c:	9f ef       	ldi	r25, 0xFF	; 255
     49e:	08 95       	ret

000004a0 <_ZN14HardwareSerial4readEv>:
     4a0:	fc 01       	movw	r30, r24
     4a2:	84 85       	ldd	r24, Z+12	; 0x0c
     4a4:	95 85       	ldd	r25, Z+13	; 0x0d
     4a6:	fc 01       	movw	r30, r24
     4a8:	e0 5c       	subi	r30, 0xC0	; 192
     4aa:	ff 4f       	sbci	r31, 0xFF	; 255
     4ac:	40 81       	ld	r20, Z
     4ae:	51 81       	ldd	r21, Z+1	; 0x01
     4b0:	32 96       	adiw	r30, 0x02	; 2
     4b2:	20 81       	ld	r18, Z
     4b4:	31 81       	ldd	r19, Z+1	; 0x01
     4b6:	42 17       	cp	r20, r18
     4b8:	53 07       	cpc	r21, r19
     4ba:	81 f0       	breq	.+32     	; 0x4dc <_ZN14HardwareSerial4readEv+0x3c>
     4bc:	20 81       	ld	r18, Z
     4be:	31 81       	ldd	r19, Z+1	; 0x01
     4c0:	dc 01       	movw	r26, r24
     4c2:	a2 0f       	add	r26, r18
     4c4:	b3 1f       	adc	r27, r19
     4c6:	8c 91       	ld	r24, X
     4c8:	20 81       	ld	r18, Z
     4ca:	31 81       	ldd	r19, Z+1	; 0x01
     4cc:	2f 5f       	subi	r18, 0xFF	; 255
     4ce:	3f 4f       	sbci	r19, 0xFF	; 255
     4d0:	2f 73       	andi	r18, 0x3F	; 63
     4d2:	33 27       	eor	r19, r19
     4d4:	31 83       	std	Z+1, r19	; 0x01
     4d6:	20 83       	st	Z, r18
     4d8:	90 e0       	ldi	r25, 0x00	; 0
     4da:	08 95       	ret
     4dc:	8f ef       	ldi	r24, 0xFF	; 255
     4de:	9f ef       	ldi	r25, 0xFF	; 255
     4e0:	08 95       	ret

000004e2 <_ZN14HardwareSerial5flushEv>:
     4e2:	fc 01       	movw	r30, r24
     4e4:	81 a1       	ldd	r24, Z+33	; 0x21
     4e6:	88 23       	and	r24, r24
     4e8:	29 f0       	breq	.+10     	; 0x4f4 <_ZN14HardwareSerial5flushEv+0x12>
     4ea:	a4 89       	ldd	r26, Z+20	; 0x14
     4ec:	b5 89       	ldd	r27, Z+21	; 0x15
     4ee:	8c 91       	ld	r24, X
     4f0:	86 ff       	sbrs	r24, 6
     4f2:	fb cf       	rjmp	.-10     	; 0x4ea <_ZN14HardwareSerial5flushEv+0x8>
     4f4:	11 a2       	std	Z+33, r1	; 0x21
     4f6:	08 95       	ret

000004f8 <_ZN14HardwareSerial5writeEh>:
     4f8:	dc 01       	movw	r26, r24
     4fa:	1e 96       	adiw	r26, 0x0e	; 14
     4fc:	8d 91       	ld	r24, X+
     4fe:	9c 91       	ld	r25, X
     500:	1f 97       	sbiw	r26, 0x0f	; 15
     502:	fc 01       	movw	r30, r24
     504:	e0 5c       	subi	r30, 0xC0	; 192
     506:	ff 4f       	sbci	r31, 0xFF	; 255
     508:	40 81       	ld	r20, Z
     50a:	51 81       	ldd	r21, Z+1	; 0x01
     50c:	4f 5f       	subi	r20, 0xFF	; 255
     50e:	5f 4f       	sbci	r21, 0xFF	; 255
     510:	4f 73       	andi	r20, 0x3F	; 63
     512:	55 27       	eor	r21, r21
     514:	32 96       	adiw	r30, 0x02	; 2
     516:	20 81       	ld	r18, Z
     518:	31 81       	ldd	r19, Z+1	; 0x01
     51a:	42 17       	cp	r20, r18
     51c:	53 07       	cpc	r21, r19
     51e:	d9 f3       	breq	.-10     	; 0x516 <_ZN14HardwareSerial5writeEh+0x1e>
     520:	fc 01       	movw	r30, r24
     522:	e0 5c       	subi	r30, 0xC0	; 192
     524:	ff 4f       	sbci	r31, 0xFF	; 255
     526:	20 81       	ld	r18, Z
     528:	31 81       	ldd	r19, Z+1	; 0x01
     52a:	fc 01       	movw	r30, r24
     52c:	e2 0f       	add	r30, r18
     52e:	f3 1f       	adc	r31, r19
     530:	60 83       	st	Z, r22
     532:	1e 96       	adiw	r26, 0x0e	; 14
     534:	ed 91       	ld	r30, X+
     536:	fc 91       	ld	r31, X
     538:	1f 97       	sbiw	r26, 0x0f	; 15
     53a:	e0 5c       	subi	r30, 0xC0	; 192
     53c:	ff 4f       	sbci	r31, 0xFF	; 255
     53e:	51 83       	std	Z+1, r21	; 0x01
     540:	40 83       	st	Z, r20
     542:	56 96       	adiw	r26, 0x16	; 22
     544:	ed 91       	ld	r30, X+
     546:	fc 91       	ld	r31, X
     548:	57 97       	sbiw	r26, 0x17	; 23
     54a:	40 81       	ld	r20, Z
     54c:	21 e0       	ldi	r18, 0x01	; 1
     54e:	30 e0       	ldi	r19, 0x00	; 0
     550:	c9 01       	movw	r24, r18
     552:	5f 96       	adiw	r26, 0x1f	; 31
     554:	0c 90       	ld	r0, X
     556:	5f 97       	sbiw	r26, 0x1f	; 31
     558:	02 c0       	rjmp	.+4      	; 0x55e <_ZN14HardwareSerial5writeEh+0x66>
     55a:	88 0f       	add	r24, r24
     55c:	99 1f       	adc	r25, r25
     55e:	0a 94       	dec	r0
     560:	e2 f7       	brpl	.-8      	; 0x55a <_ZN14HardwareSerial5writeEh+0x62>
     562:	84 2b       	or	r24, r20
     564:	80 83       	st	Z, r24
     566:	81 e0       	ldi	r24, 0x01	; 1
     568:	91 96       	adiw	r26, 0x21	; 33
     56a:	8c 93       	st	X, r24
     56c:	91 97       	sbiw	r26, 0x21	; 33
     56e:	54 96       	adiw	r26, 0x14	; 20
     570:	ed 91       	ld	r30, X+
     572:	fc 91       	ld	r31, X
     574:	55 97       	sbiw	r26, 0x15	; 21
     576:	80 81       	ld	r24, Z
     578:	80 64       	ori	r24, 0x40	; 64
     57a:	80 83       	st	Z, r24
     57c:	81 e0       	ldi	r24, 0x01	; 1
     57e:	90 e0       	ldi	r25, 0x00	; 0
     580:	08 95       	ret

00000582 <_Z11serialEventv>:
     582:	08 95       	ret

00000584 <__vector_18>:
     584:	1f 92       	push	r1
     586:	0f 92       	push	r0
     588:	0f b6       	in	r0, 0x3f	; 63
     58a:	0f 92       	push	r0
     58c:	11 24       	eor	r1, r1
     58e:	2f 93       	push	r18
     590:	3f 93       	push	r19
     592:	4f 93       	push	r20
     594:	8f 93       	push	r24
     596:	9f 93       	push	r25
     598:	af 93       	push	r26
     59a:	bf 93       	push	r27
     59c:	ef 93       	push	r30
     59e:	ff 93       	push	r31
     5a0:	80 91 c0 00 	lds	r24, 0x00C0
     5a4:	82 fd       	sbrc	r24, 2
     5a6:	1a c0       	rjmp	.+52     	; 0x5dc <__vector_18+0x58>
     5a8:	40 91 c6 00 	lds	r20, 0x00C6
     5ac:	80 91 72 02 	lds	r24, 0x0272
     5b0:	90 91 73 02 	lds	r25, 0x0273
     5b4:	01 96       	adiw	r24, 0x01	; 1
     5b6:	8f 73       	andi	r24, 0x3F	; 63
     5b8:	99 27       	eor	r25, r25
     5ba:	20 91 74 02 	lds	r18, 0x0274
     5be:	30 91 75 02 	lds	r19, 0x0275
     5c2:	82 17       	cp	r24, r18
     5c4:	93 07       	cpc	r25, r19
     5c6:	61 f0       	breq	.+24     	; 0x5e0 <__vector_18+0x5c>
     5c8:	e2 e7       	ldi	r30, 0x72	; 114
     5ca:	f2 e0       	ldi	r31, 0x02	; 2
     5cc:	a0 81       	ld	r26, Z
     5ce:	b1 81       	ldd	r27, Z+1	; 0x01
     5d0:	ae 5c       	subi	r26, 0xCE	; 206
     5d2:	bd 4f       	sbci	r27, 0xFD	; 253
     5d4:	4c 93       	st	X, r20
     5d6:	91 83       	std	Z+1, r25	; 0x01
     5d8:	80 83       	st	Z, r24
     5da:	02 c0       	rjmp	.+4      	; 0x5e0 <__vector_18+0x5c>
     5dc:	80 91 c6 00 	lds	r24, 0x00C6
     5e0:	ff 91       	pop	r31
     5e2:	ef 91       	pop	r30
     5e4:	bf 91       	pop	r27
     5e6:	af 91       	pop	r26
     5e8:	9f 91       	pop	r25
     5ea:	8f 91       	pop	r24
     5ec:	4f 91       	pop	r20
     5ee:	3f 91       	pop	r19
     5f0:	2f 91       	pop	r18
     5f2:	0f 90       	pop	r0
     5f4:	0f be       	out	0x3f, r0	; 63
     5f6:	0f 90       	pop	r0
     5f8:	1f 90       	pop	r1
     5fa:	18 95       	reti

000005fc <_Z14serialEventRunv>:
     5fc:	8c ec       	ldi	r24, 0xCC	; 204
     5fe:	91 e0       	ldi	r25, 0x01	; 1
     600:	0e 94 1f 02 	call	0x43e	; 0x43e <_ZN14HardwareSerial9availableEv>
     604:	89 2b       	or	r24, r25
     606:	11 f0       	breq	.+4      	; 0x60c <_Z14serialEventRunv+0x10>
     608:	0e 94 c1 02 	call	0x582	; 0x582 <_Z11serialEventv>
     60c:	08 95       	ret

0000060e <__vector_19>:
     60e:	1f 92       	push	r1
     610:	0f 92       	push	r0
     612:	0f b6       	in	r0, 0x3f	; 63
     614:	0f 92       	push	r0
     616:	11 24       	eor	r1, r1
     618:	2f 93       	push	r18
     61a:	3f 93       	push	r19
     61c:	8f 93       	push	r24
     61e:	9f 93       	push	r25
     620:	af 93       	push	r26
     622:	bf 93       	push	r27
     624:	ef 93       	push	r30
     626:	ff 93       	push	r31
     628:	20 91 2e 02 	lds	r18, 0x022E
     62c:	30 91 2f 02 	lds	r19, 0x022F
     630:	80 91 30 02 	lds	r24, 0x0230
     634:	90 91 31 02 	lds	r25, 0x0231
     638:	28 17       	cp	r18, r24
     63a:	39 07       	cpc	r19, r25
     63c:	31 f4       	brne	.+12     	; 0x64a <__vector_19+0x3c>
     63e:	e1 ec       	ldi	r30, 0xC1	; 193
     640:	f0 e0       	ldi	r31, 0x00	; 0
     642:	80 81       	ld	r24, Z
     644:	8f 7d       	andi	r24, 0xDF	; 223
     646:	80 83       	st	Z, r24
     648:	10 c0       	rjmp	.+32     	; 0x66a <__vector_19+0x5c>
     64a:	e0 e3       	ldi	r30, 0x30	; 48
     64c:	f2 e0       	ldi	r31, 0x02	; 2
     64e:	a0 81       	ld	r26, Z
     650:	b1 81       	ldd	r27, Z+1	; 0x01
     652:	a2 51       	subi	r26, 0x12	; 18
     654:	be 4f       	sbci	r27, 0xFE	; 254
     656:	2c 91       	ld	r18, X
     658:	80 81       	ld	r24, Z
     65a:	91 81       	ldd	r25, Z+1	; 0x01
     65c:	01 96       	adiw	r24, 0x01	; 1
     65e:	8f 73       	andi	r24, 0x3F	; 63
     660:	99 27       	eor	r25, r25
     662:	91 83       	std	Z+1, r25	; 0x01
     664:	80 83       	st	Z, r24
     666:	20 93 c6 00 	sts	0x00C6, r18
     66a:	ff 91       	pop	r31
     66c:	ef 91       	pop	r30
     66e:	bf 91       	pop	r27
     670:	af 91       	pop	r26
     672:	9f 91       	pop	r25
     674:	8f 91       	pop	r24
     676:	3f 91       	pop	r19
     678:	2f 91       	pop	r18
     67a:	0f 90       	pop	r0
     67c:	0f be       	out	0x3f, r0	; 63
     67e:	0f 90       	pop	r0
     680:	1f 90       	pop	r1
     682:	18 95       	reti

00000684 <_ZN14HardwareSerialC1EP11ring_bufferS1_PVhS3_S3_S3_S3_S3_hhhhh>:
     684:	8f 92       	push	r8
     686:	9f 92       	push	r9
     688:	af 92       	push	r10
     68a:	bf 92       	push	r11
     68c:	cf 92       	push	r12
     68e:	df 92       	push	r13
     690:	ef 92       	push	r14
     692:	ff 92       	push	r15
     694:	0f 93       	push	r16
     696:	1f 93       	push	r17
     698:	cf 93       	push	r28
     69a:	df 93       	push	r29
     69c:	cd b7       	in	r28, 0x3d	; 61
     69e:	de b7       	in	r29, 0x3e	; 62
     6a0:	fc 01       	movw	r30, r24
     6a2:	13 82       	std	Z+3, r1	; 0x03
     6a4:	12 82       	std	Z+2, r1	; 0x02
     6a6:	88 ee       	ldi	r24, 0xE8	; 232
     6a8:	93 e0       	ldi	r25, 0x03	; 3
     6aa:	a0 e0       	ldi	r26, 0x00	; 0
     6ac:	b0 e0       	ldi	r27, 0x00	; 0
     6ae:	84 83       	std	Z+4, r24	; 0x04
     6b0:	95 83       	std	Z+5, r25	; 0x05
     6b2:	a6 83       	std	Z+6, r26	; 0x06
     6b4:	b7 83       	std	Z+7, r27	; 0x07
     6b6:	8f e0       	ldi	r24, 0x0F	; 15
     6b8:	91 e0       	ldi	r25, 0x01	; 1
     6ba:	91 83       	std	Z+1, r25	; 0x01
     6bc:	80 83       	st	Z, r24
     6be:	75 87       	std	Z+13, r23	; 0x0d
     6c0:	64 87       	std	Z+12, r22	; 0x0c
     6c2:	57 87       	std	Z+15, r21	; 0x0f
     6c4:	46 87       	std	Z+14, r20	; 0x0e
     6c6:	31 8b       	std	Z+17, r19	; 0x11
     6c8:	20 8b       	std	Z+16, r18	; 0x10
     6ca:	13 8b       	std	Z+19, r17	; 0x13
     6cc:	02 8b       	std	Z+18, r16	; 0x12
     6ce:	f5 8a       	std	Z+21, r15	; 0x15
     6d0:	e4 8a       	std	Z+20, r14	; 0x14
     6d2:	d7 8a       	std	Z+23, r13	; 0x17
     6d4:	c6 8a       	std	Z+22, r12	; 0x16
     6d6:	b1 8e       	std	Z+25, r11	; 0x19
     6d8:	a0 8e       	std	Z+24, r10	; 0x18
     6da:	93 8e       	std	Z+27, r9	; 0x1b
     6dc:	82 8e       	std	Z+26, r8	; 0x1a
     6de:	8f 85       	ldd	r24, Y+15	; 0x0f
     6e0:	84 8f       	std	Z+28, r24	; 0x1c
     6e2:	88 89       	ldd	r24, Y+16	; 0x10
     6e4:	85 8f       	std	Z+29, r24	; 0x1d
     6e6:	89 89       	ldd	r24, Y+17	; 0x11
     6e8:	86 8f       	std	Z+30, r24	; 0x1e
     6ea:	8a 89       	ldd	r24, Y+18	; 0x12
     6ec:	87 8f       	std	Z+31, r24	; 0x1f
     6ee:	8b 89       	ldd	r24, Y+19	; 0x13
     6f0:	80 a3       	std	Z+32, r24	; 0x20
     6f2:	df 91       	pop	r29
     6f4:	cf 91       	pop	r28
     6f6:	1f 91       	pop	r17
     6f8:	0f 91       	pop	r16
     6fa:	ff 90       	pop	r15
     6fc:	ef 90       	pop	r14
     6fe:	df 90       	pop	r13
     700:	cf 90       	pop	r12
     702:	bf 90       	pop	r11
     704:	af 90       	pop	r10
     706:	9f 90       	pop	r9
     708:	8f 90       	pop	r8
     70a:	08 95       	ret

0000070c <_ZN14HardwareSerial5beginEm>:
     70c:	cf 92       	push	r12
     70e:	df 92       	push	r13
     710:	ef 92       	push	r14
     712:	ff 92       	push	r15
     714:	cf 93       	push	r28
     716:	df 93       	push	r29
     718:	ec 01       	movw	r28, r24
     71a:	6a 01       	movw	r12, r20
     71c:	7b 01       	movw	r14, r22
     71e:	41 15       	cp	r20, r1
     720:	81 ee       	ldi	r24, 0xE1	; 225
     722:	58 07       	cpc	r21, r24
     724:	61 05       	cpc	r22, r1
     726:	71 05       	cpc	r23, r1
     728:	09 f1       	breq	.+66     	; 0x76c <_ZN14HardwareSerial5beginEm+0x60>
     72a:	ec 89       	ldd	r30, Y+20	; 0x14
     72c:	fd 89       	ldd	r31, Y+21	; 0x15
     72e:	81 e0       	ldi	r24, 0x01	; 1
     730:	90 e0       	ldi	r25, 0x00	; 0
     732:	08 a0       	ldd	r0, Y+32	; 0x20
     734:	02 c0       	rjmp	.+4      	; 0x73a <_ZN14HardwareSerial5beginEm+0x2e>
     736:	88 0f       	add	r24, r24
     738:	99 1f       	adc	r25, r25
     73a:	0a 94       	dec	r0
     73c:	e2 f7       	brpl	.-8      	; 0x736 <_ZN14HardwareSerial5beginEm+0x2a>
     73e:	80 83       	st	Z, r24
     740:	60 e0       	ldi	r22, 0x00	; 0
     742:	79 e0       	ldi	r23, 0x09	; 9
     744:	8d e3       	ldi	r24, 0x3D	; 61
     746:	90 e0       	ldi	r25, 0x00	; 0
     748:	a7 01       	movw	r20, r14
     74a:	96 01       	movw	r18, r12
     74c:	0e 94 a2 24 	call	0x4944	; 0x4944 <__udivmodsi4>
     750:	ba 01       	movw	r22, r20
     752:	a9 01       	movw	r20, r18
     754:	41 50       	subi	r20, 0x01	; 1
     756:	51 09       	sbc	r21, r1
     758:	61 09       	sbc	r22, r1
     75a:	71 09       	sbc	r23, r1
     75c:	76 95       	lsr	r23
     75e:	67 95       	ror	r22
     760:	57 95       	ror	r21
     762:	47 95       	ror	r20
     764:	41 15       	cp	r20, r1
     766:	80 e1       	ldi	r24, 0x10	; 16
     768:	58 07       	cpc	r21, r24
     76a:	a8 f0       	brcs	.+42     	; 0x796 <_ZN14HardwareSerial5beginEm+0x8a>
     76c:	ec 89       	ldd	r30, Y+20	; 0x14
     76e:	fd 89       	ldd	r31, Y+21	; 0x15
     770:	10 82       	st	Z, r1
     772:	60 e8       	ldi	r22, 0x80	; 128
     774:	74 e8       	ldi	r23, 0x84	; 132
     776:	8e e1       	ldi	r24, 0x1E	; 30
     778:	90 e0       	ldi	r25, 0x00	; 0
     77a:	a7 01       	movw	r20, r14
     77c:	96 01       	movw	r18, r12
     77e:	0e 94 a2 24 	call	0x4944	; 0x4944 <__udivmodsi4>
     782:	ba 01       	movw	r22, r20
     784:	a9 01       	movw	r20, r18
     786:	41 50       	subi	r20, 0x01	; 1
     788:	51 09       	sbc	r21, r1
     78a:	61 09       	sbc	r22, r1
     78c:	71 09       	sbc	r23, r1
     78e:	76 95       	lsr	r23
     790:	67 95       	ror	r22
     792:	57 95       	ror	r21
     794:	47 95       	ror	r20
     796:	e8 89       	ldd	r30, Y+16	; 0x10
     798:	f9 89       	ldd	r31, Y+17	; 0x11
     79a:	50 83       	st	Z, r21
     79c:	ea 89       	ldd	r30, Y+18	; 0x12
     79e:	fb 89       	ldd	r31, Y+19	; 0x13
     7a0:	40 83       	st	Z, r20
     7a2:	19 a2       	std	Y+33, r1	; 0x21
     7a4:	ee 89       	ldd	r30, Y+22	; 0x16
     7a6:	ff 89       	ldd	r31, Y+23	; 0x17
     7a8:	40 81       	ld	r20, Z
     7aa:	81 e0       	ldi	r24, 0x01	; 1
     7ac:	90 e0       	ldi	r25, 0x00	; 0
     7ae:	9c 01       	movw	r18, r24
     7b0:	0c 8c       	ldd	r0, Y+28	; 0x1c
     7b2:	02 c0       	rjmp	.+4      	; 0x7b8 <_ZN14HardwareSerial5beginEm+0xac>
     7b4:	22 0f       	add	r18, r18
     7b6:	33 1f       	adc	r19, r19
     7b8:	0a 94       	dec	r0
     7ba:	e2 f7       	brpl	.-8      	; 0x7b4 <_ZN14HardwareSerial5beginEm+0xa8>
     7bc:	24 2b       	or	r18, r20
     7be:	20 83       	st	Z, r18
     7c0:	ee 89       	ldd	r30, Y+22	; 0x16
     7c2:	ff 89       	ldd	r31, Y+23	; 0x17
     7c4:	40 81       	ld	r20, Z
     7c6:	9c 01       	movw	r18, r24
     7c8:	0d 8c       	ldd	r0, Y+29	; 0x1d
     7ca:	02 c0       	rjmp	.+4      	; 0x7d0 <_ZN14HardwareSerial5beginEm+0xc4>
     7cc:	22 0f       	add	r18, r18
     7ce:	33 1f       	adc	r19, r19
     7d0:	0a 94       	dec	r0
     7d2:	e2 f7       	brpl	.-8      	; 0x7cc <_ZN14HardwareSerial5beginEm+0xc0>
     7d4:	24 2b       	or	r18, r20
     7d6:	20 83       	st	Z, r18
     7d8:	ee 89       	ldd	r30, Y+22	; 0x16
     7da:	ff 89       	ldd	r31, Y+23	; 0x17
     7dc:	40 81       	ld	r20, Z
     7de:	9c 01       	movw	r18, r24
     7e0:	0e 8c       	ldd	r0, Y+30	; 0x1e
     7e2:	02 c0       	rjmp	.+4      	; 0x7e8 <_ZN14HardwareSerial5beginEm+0xdc>
     7e4:	22 0f       	add	r18, r18
     7e6:	33 1f       	adc	r19, r19
     7e8:	0a 94       	dec	r0
     7ea:	e2 f7       	brpl	.-8      	; 0x7e4 <_ZN14HardwareSerial5beginEm+0xd8>
     7ec:	24 2b       	or	r18, r20
     7ee:	20 83       	st	Z, r18
     7f0:	ee 89       	ldd	r30, Y+22	; 0x16
     7f2:	ff 89       	ldd	r31, Y+23	; 0x17
     7f4:	20 81       	ld	r18, Z
     7f6:	0f 8c       	ldd	r0, Y+31	; 0x1f
     7f8:	02 c0       	rjmp	.+4      	; 0x7fe <_ZN14HardwareSerial5beginEm+0xf2>
     7fa:	88 0f       	add	r24, r24
     7fc:	99 1f       	adc	r25, r25
     7fe:	0a 94       	dec	r0
     800:	e2 f7       	brpl	.-8      	; 0x7fa <_ZN14HardwareSerial5beginEm+0xee>
     802:	80 95       	com	r24
     804:	82 23       	and	r24, r18
     806:	80 83       	st	Z, r24
     808:	df 91       	pop	r29
     80a:	cf 91       	pop	r28
     80c:	ff 90       	pop	r15
     80e:	ef 90       	pop	r14
     810:	df 90       	pop	r13
     812:	cf 90       	pop	r12
     814:	08 95       	ret

00000816 <_GLOBAL__sub_I_rx_buffer>:
     816:	8f 92       	push	r8
     818:	9f 92       	push	r9
     81a:	af 92       	push	r10
     81c:	bf 92       	push	r11
     81e:	cf 92       	push	r12
     820:	df 92       	push	r13
     822:	ef 92       	push	r14
     824:	ff 92       	push	r15
     826:	0f 93       	push	r16
     828:	1f 93       	push	r17
     82a:	81 e0       	ldi	r24, 0x01	; 1
     82c:	8f 93       	push	r24
     82e:	85 e0       	ldi	r24, 0x05	; 5
     830:	8f 93       	push	r24
     832:	87 e0       	ldi	r24, 0x07	; 7
     834:	8f 93       	push	r24
     836:	83 e0       	ldi	r24, 0x03	; 3
     838:	8f 93       	push	r24
     83a:	84 e0       	ldi	r24, 0x04	; 4
     83c:	8f 93       	push	r24
     83e:	0f 2e       	mov	r0, r31
     840:	f6 ec       	ldi	r31, 0xC6	; 198
     842:	8f 2e       	mov	r8, r31
     844:	91 2c       	mov	r9, r1
     846:	f0 2d       	mov	r31, r0
     848:	0f 2e       	mov	r0, r31
     84a:	f2 ec       	ldi	r31, 0xC2	; 194
     84c:	af 2e       	mov	r10, r31
     84e:	b1 2c       	mov	r11, r1
     850:	f0 2d       	mov	r31, r0
     852:	0f 2e       	mov	r0, r31
     854:	f1 ec       	ldi	r31, 0xC1	; 193
     856:	cf 2e       	mov	r12, r31
     858:	d1 2c       	mov	r13, r1
     85a:	f0 2d       	mov	r31, r0
     85c:	0f 2e       	mov	r0, r31
     85e:	f0 ec       	ldi	r31, 0xC0	; 192
     860:	ef 2e       	mov	r14, r31
     862:	f1 2c       	mov	r15, r1
     864:	f0 2d       	mov	r31, r0
     866:	04 ec       	ldi	r16, 0xC4	; 196
     868:	10 e0       	ldi	r17, 0x00	; 0
     86a:	25 ec       	ldi	r18, 0xC5	; 197
     86c:	30 e0       	ldi	r19, 0x00	; 0
     86e:	4e ee       	ldi	r20, 0xEE	; 238
     870:	51 e0       	ldi	r21, 0x01	; 1
     872:	62 e3       	ldi	r22, 0x32	; 50
     874:	72 e0       	ldi	r23, 0x02	; 2
     876:	8c ec       	ldi	r24, 0xCC	; 204
     878:	91 e0       	ldi	r25, 0x01	; 1
     87a:	0e 94 42 03 	call	0x684	; 0x684 <_ZN14HardwareSerialC1EP11ring_bufferS1_PVhS3_S3_S3_S3_S3_hhhhh>
     87e:	0f 90       	pop	r0
     880:	0f 90       	pop	r0
     882:	0f 90       	pop	r0
     884:	0f 90       	pop	r0
     886:	0f 90       	pop	r0
     888:	1f 91       	pop	r17
     88a:	0f 91       	pop	r16
     88c:	ff 90       	pop	r15
     88e:	ef 90       	pop	r14
     890:	df 90       	pop	r13
     892:	cf 90       	pop	r12
     894:	bf 90       	pop	r11
     896:	af 90       	pop	r10
     898:	9f 90       	pop	r9
     89a:	8f 90       	pop	r8
     89c:	08 95       	ret

0000089e <_ZNK9IPAddress7printToER5Print>:
     89e:	af 92       	push	r10
     8a0:	bf 92       	push	r11
     8a2:	cf 92       	push	r12
     8a4:	df 92       	push	r13
     8a6:	ef 92       	push	r14
     8a8:	ff 92       	push	r15
     8aa:	0f 93       	push	r16
     8ac:	1f 93       	push	r17
     8ae:	cf 93       	push	r28
     8b0:	df 93       	push	r29
     8b2:	5c 01       	movw	r10, r24
     8b4:	7b 01       	movw	r14, r22
     8b6:	c0 e0       	ldi	r28, 0x00	; 0
     8b8:	d0 e0       	ldi	r29, 0x00	; 0
     8ba:	00 e0       	ldi	r16, 0x00	; 0
     8bc:	10 e0       	ldi	r17, 0x00	; 0
     8be:	f5 01       	movw	r30, r10
     8c0:	ec 0f       	add	r30, r28
     8c2:	fd 1f       	adc	r31, r29
     8c4:	4a e0       	ldi	r20, 0x0A	; 10
     8c6:	50 e0       	ldi	r21, 0x00	; 0
     8c8:	62 81       	ldd	r22, Z+2	; 0x02
     8ca:	c7 01       	movw	r24, r14
     8cc:	0e 94 eb 05 	call	0xbd6	; 0xbd6 <_ZN5Print5printEhi>
     8d0:	6c 01       	movw	r12, r24
     8d2:	6e e2       	ldi	r22, 0x2E	; 46
     8d4:	c7 01       	movw	r24, r14
     8d6:	0e 94 21 05 	call	0xa42	; 0xa42 <_ZN5Print5printEc>
     8da:	8c 0d       	add	r24, r12
     8dc:	9d 1d       	adc	r25, r13
     8de:	08 0f       	add	r16, r24
     8e0:	19 1f       	adc	r17, r25
     8e2:	21 96       	adiw	r28, 0x01	; 1
     8e4:	c3 30       	cpi	r28, 0x03	; 3
     8e6:	d1 05       	cpc	r29, r1
     8e8:	51 f7       	brne	.-44     	; 0x8be <_ZNK9IPAddress7printToER5Print+0x20>
     8ea:	4a e0       	ldi	r20, 0x0A	; 10
     8ec:	50 e0       	ldi	r21, 0x00	; 0
     8ee:	f5 01       	movw	r30, r10
     8f0:	65 81       	ldd	r22, Z+5	; 0x05
     8f2:	c7 01       	movw	r24, r14
     8f4:	0e 94 eb 05 	call	0xbd6	; 0xbd6 <_ZN5Print5printEhi>
     8f8:	80 0f       	add	r24, r16
     8fa:	91 1f       	adc	r25, r17
     8fc:	df 91       	pop	r29
     8fe:	cf 91       	pop	r28
     900:	1f 91       	pop	r17
     902:	0f 91       	pop	r16
     904:	ff 90       	pop	r15
     906:	ef 90       	pop	r14
     908:	df 90       	pop	r13
     90a:	cf 90       	pop	r12
     90c:	bf 90       	pop	r11
     90e:	af 90       	pop	r10
     910:	08 95       	ret

00000912 <_ZN9IPAddressC1Ehhhh>:
     912:	0f 93       	push	r16
     914:	fc 01       	movw	r30, r24
     916:	8f e1       	ldi	r24, 0x1F	; 31
     918:	91 e0       	ldi	r25, 0x01	; 1
     91a:	91 83       	std	Z+1, r25	; 0x01
     91c:	80 83       	st	Z, r24
     91e:	62 83       	std	Z+2, r22	; 0x02
     920:	43 83       	std	Z+3, r20	; 0x03
     922:	24 83       	std	Z+4, r18	; 0x04
     924:	05 83       	std	Z+5, r16	; 0x05
     926:	0f 91       	pop	r16
     928:	08 95       	ret

0000092a <_GLOBAL__sub_I__ZN9IPAddressC2Ev>:
     92a:	0f 93       	push	r16
     92c:	00 e0       	ldi	r16, 0x00	; 0
     92e:	20 e0       	ldi	r18, 0x00	; 0
     930:	40 e0       	ldi	r20, 0x00	; 0
     932:	60 e0       	ldi	r22, 0x00	; 0
     934:	86 e7       	ldi	r24, 0x76	; 118
     936:	92 e0       	ldi	r25, 0x02	; 2
     938:	0e 94 89 04 	call	0x912	; 0x912 <_ZN9IPAddressC1Ehhhh>
     93c:	0f 91       	pop	r16
     93e:	08 95       	ret

00000940 <initVariant>:
     940:	08 95       	ret

00000942 <main>:
     942:	0e 94 b3 07 	call	0xf66	; 0xf66 <init>
     946:	0e 94 a0 04 	call	0x940	; 0x940 <initVariant>
     94a:	0e 94 da 23 	call	0x47b4	; 0x47b4 <setup>
     94e:	0e 94 25 24 	call	0x484a	; 0x484a <loop>
     952:	8e ef       	ldi	r24, 0xFE	; 254
     954:	92 e0       	ldi	r25, 0x02	; 2
     956:	89 2b       	or	r24, r25
     958:	29 f0       	breq	.+10     	; 0x964 <main+0x22>
     95a:	0e 94 fe 02 	call	0x5fc	; 0x5fc <_Z14serialEventRunv>
     95e:	0e 94 25 24 	call	0x484a	; 0x484a <loop>
     962:	fb cf       	rjmp	.-10     	; 0x95a <main+0x18>
     964:	0e 94 25 24 	call	0x484a	; 0x484a <loop>
     968:	fd cf       	rjmp	.-6      	; 0x964 <main+0x22>

0000096a <_ZN5Print5writeEPKhj>:
     96a:	cf 92       	push	r12
     96c:	df 92       	push	r13
     96e:	ef 92       	push	r14
     970:	ff 92       	push	r15
     972:	0f 93       	push	r16
     974:	1f 93       	push	r17
     976:	cf 93       	push	r28
     978:	df 93       	push	r29
     97a:	6c 01       	movw	r12, r24
     97c:	41 15       	cp	r20, r1
     97e:	51 05       	cpc	r21, r1
     980:	b1 f0       	breq	.+44     	; 0x9ae <_ZN5Print5writeEPKhj+0x44>
     982:	06 2f       	mov	r16, r22
     984:	17 2f       	mov	r17, r23
     986:	ea 01       	movw	r28, r20
     988:	e1 2c       	mov	r14, r1
     98a:	f1 2c       	mov	r15, r1
     98c:	d8 01       	movw	r26, r16
     98e:	6d 91       	ld	r22, X+
     990:	8d 01       	movw	r16, r26
     992:	d6 01       	movw	r26, r12
     994:	ed 91       	ld	r30, X+
     996:	fc 91       	ld	r31, X
     998:	01 90       	ld	r0, Z+
     99a:	f0 81       	ld	r31, Z
     99c:	e0 2d       	mov	r30, r0
     99e:	c6 01       	movw	r24, r12
     9a0:	09 95       	icall
     9a2:	e8 0e       	add	r14, r24
     9a4:	f9 1e       	adc	r15, r25
     9a6:	21 97       	sbiw	r28, 0x01	; 1
     9a8:	20 97       	sbiw	r28, 0x00	; 0
     9aa:	81 f7       	brne	.-32     	; 0x98c <_ZN5Print5writeEPKhj+0x22>
     9ac:	02 c0       	rjmp	.+4      	; 0x9b2 <_ZN5Print5writeEPKhj+0x48>
     9ae:	e1 2c       	mov	r14, r1
     9b0:	f1 2c       	mov	r15, r1
     9b2:	c7 01       	movw	r24, r14
     9b4:	df 91       	pop	r29
     9b6:	cf 91       	pop	r28
     9b8:	1f 91       	pop	r17
     9ba:	0f 91       	pop	r16
     9bc:	ff 90       	pop	r15
     9be:	ef 90       	pop	r14
     9c0:	df 90       	pop	r13
     9c2:	cf 90       	pop	r12
     9c4:	08 95       	ret

000009c6 <_ZN5Print5printEPK19__FlashStringHelper>:
     9c6:	ef 92       	push	r14
     9c8:	ff 92       	push	r15
     9ca:	0f 93       	push	r16
     9cc:	1f 93       	push	r17
     9ce:	cf 93       	push	r28
     9d0:	df 93       	push	r29
     9d2:	7c 01       	movw	r14, r24
     9d4:	eb 01       	movw	r28, r22
     9d6:	21 96       	adiw	r28, 0x01	; 1
     9d8:	fb 01       	movw	r30, r22
     9da:	64 91       	lpm	r22, Z
     9dc:	66 23       	and	r22, r22
     9de:	89 f0       	breq	.+34     	; 0xa02 <_ZN5Print5printEPK19__FlashStringHelper+0x3c>
     9e0:	00 e0       	ldi	r16, 0x00	; 0
     9e2:	10 e0       	ldi	r17, 0x00	; 0
     9e4:	f7 01       	movw	r30, r14
     9e6:	a0 81       	ld	r26, Z
     9e8:	b1 81       	ldd	r27, Z+1	; 0x01
     9ea:	ed 91       	ld	r30, X+
     9ec:	fc 91       	ld	r31, X
     9ee:	c7 01       	movw	r24, r14
     9f0:	09 95       	icall
     9f2:	08 0f       	add	r16, r24
     9f4:	19 1f       	adc	r17, r25
     9f6:	fe 01       	movw	r30, r28
     9f8:	64 91       	lpm	r22, Z
     9fa:	21 96       	adiw	r28, 0x01	; 1
     9fc:	66 23       	and	r22, r22
     9fe:	19 f0       	breq	.+6      	; 0xa06 <_ZN5Print5printEPK19__FlashStringHelper+0x40>
     a00:	f1 cf       	rjmp	.-30     	; 0x9e4 <_ZN5Print5printEPK19__FlashStringHelper+0x1e>
     a02:	00 e0       	ldi	r16, 0x00	; 0
     a04:	10 e0       	ldi	r17, 0x00	; 0
     a06:	c8 01       	movw	r24, r16
     a08:	df 91       	pop	r29
     a0a:	cf 91       	pop	r28
     a0c:	1f 91       	pop	r17
     a0e:	0f 91       	pop	r16
     a10:	ff 90       	pop	r15
     a12:	ef 90       	pop	r14
     a14:	08 95       	ret

00000a16 <_ZN5Print5printEPKc>:
     a16:	61 15       	cp	r22, r1
     a18:	71 05       	cpc	r23, r1
     a1a:	81 f0       	breq	.+32     	; 0xa3c <_ZN5Print5printEPKc+0x26>
     a1c:	fb 01       	movw	r30, r22
     a1e:	01 90       	ld	r0, Z+
     a20:	00 20       	and	r0, r0
     a22:	e9 f7       	brne	.-6      	; 0xa1e <_ZN5Print5printEPKc+0x8>
     a24:	31 97       	sbiw	r30, 0x01	; 1
     a26:	af 01       	movw	r20, r30
     a28:	46 1b       	sub	r20, r22
     a2a:	57 0b       	sbc	r21, r23
     a2c:	dc 01       	movw	r26, r24
     a2e:	ed 91       	ld	r30, X+
     a30:	fc 91       	ld	r31, X
     a32:	02 80       	ldd	r0, Z+2	; 0x02
     a34:	f3 81       	ldd	r31, Z+3	; 0x03
     a36:	e0 2d       	mov	r30, r0
     a38:	09 95       	icall
     a3a:	08 95       	ret
     a3c:	80 e0       	ldi	r24, 0x00	; 0
     a3e:	90 e0       	ldi	r25, 0x00	; 0
     a40:	08 95       	ret

00000a42 <_ZN5Print5printEc>:
     a42:	dc 01       	movw	r26, r24
     a44:	ed 91       	ld	r30, X+
     a46:	fc 91       	ld	r31, X
     a48:	01 90       	ld	r0, Z+
     a4a:	f0 81       	ld	r31, Z
     a4c:	e0 2d       	mov	r30, r0
     a4e:	09 95       	icall
     a50:	08 95       	ret

00000a52 <_ZN5Print7printlnEv>:
     a52:	0f 93       	push	r16
     a54:	1f 93       	push	r17
     a56:	cf 93       	push	r28
     a58:	df 93       	push	r29
     a5a:	ec 01       	movw	r28, r24
     a5c:	6d e0       	ldi	r22, 0x0D	; 13
     a5e:	0e 94 21 05 	call	0xa42	; 0xa42 <_ZN5Print5printEc>
     a62:	8c 01       	movw	r16, r24
     a64:	6a e0       	ldi	r22, 0x0A	; 10
     a66:	ce 01       	movw	r24, r28
     a68:	0e 94 21 05 	call	0xa42	; 0xa42 <_ZN5Print5printEc>
     a6c:	80 0f       	add	r24, r16
     a6e:	91 1f       	adc	r25, r17
     a70:	df 91       	pop	r29
     a72:	cf 91       	pop	r28
     a74:	1f 91       	pop	r17
     a76:	0f 91       	pop	r16
     a78:	08 95       	ret

00000a7a <_ZN5Print7printlnEPK19__FlashStringHelper>:
     a7a:	0f 93       	push	r16
     a7c:	1f 93       	push	r17
     a7e:	cf 93       	push	r28
     a80:	df 93       	push	r29
     a82:	ec 01       	movw	r28, r24
     a84:	0e 94 e3 04 	call	0x9c6	; 0x9c6 <_ZN5Print5printEPK19__FlashStringHelper>
     a88:	8c 01       	movw	r16, r24
     a8a:	ce 01       	movw	r24, r28
     a8c:	0e 94 29 05 	call	0xa52	; 0xa52 <_ZN5Print7printlnEv>
     a90:	80 0f       	add	r24, r16
     a92:	91 1f       	adc	r25, r17
     a94:	df 91       	pop	r29
     a96:	cf 91       	pop	r28
     a98:	1f 91       	pop	r17
     a9a:	0f 91       	pop	r16
     a9c:	08 95       	ret

00000a9e <_ZN5Print7printlnEPKc>:
     a9e:	0f 93       	push	r16
     aa0:	1f 93       	push	r17
     aa2:	cf 93       	push	r28
     aa4:	df 93       	push	r29
     aa6:	ec 01       	movw	r28, r24
     aa8:	0e 94 0b 05 	call	0xa16	; 0xa16 <_ZN5Print5printEPKc>
     aac:	8c 01       	movw	r16, r24
     aae:	ce 01       	movw	r24, r28
     ab0:	0e 94 29 05 	call	0xa52	; 0xa52 <_ZN5Print7printlnEv>
     ab4:	80 0f       	add	r24, r16
     ab6:	91 1f       	adc	r25, r17
     ab8:	df 91       	pop	r29
     aba:	cf 91       	pop	r28
     abc:	1f 91       	pop	r17
     abe:	0f 91       	pop	r16
     ac0:	08 95       	ret

00000ac2 <_ZN5Print11printNumberEmh>:
     ac2:	6f 92       	push	r6
     ac4:	7f 92       	push	r7
     ac6:	8f 92       	push	r8
     ac8:	9f 92       	push	r9
     aca:	af 92       	push	r10
     acc:	bf 92       	push	r11
     ace:	cf 92       	push	r12
     ad0:	df 92       	push	r13
     ad2:	ef 92       	push	r14
     ad4:	ff 92       	push	r15
     ad6:	0f 93       	push	r16
     ad8:	1f 93       	push	r17
     ada:	cf 93       	push	r28
     adc:	df 93       	push	r29
     ade:	cd b7       	in	r28, 0x3d	; 61
     ae0:	de b7       	in	r29, 0x3e	; 62
     ae2:	a1 97       	sbiw	r28, 0x21	; 33
     ae4:	0f b6       	in	r0, 0x3f	; 63
     ae6:	f8 94       	cli
     ae8:	de bf       	out	0x3e, r29	; 62
     aea:	0f be       	out	0x3f, r0	; 63
     aec:	cd bf       	out	0x3d, r28	; 61
     aee:	6c 01       	movw	r12, r24
     af0:	74 2e       	mov	r7, r20
     af2:	35 2f       	mov	r19, r21
     af4:	86 2f       	mov	r24, r22
     af6:	97 2f       	mov	r25, r23
     af8:	62 2e       	mov	r6, r18
     afa:	19 a2       	std	Y+33, r1	; 0x21
     afc:	21 e0       	ldi	r18, 0x01	; 1
     afe:	26 15       	cp	r18, r6
     b00:	20 f0       	brcs	.+8      	; 0xb0a <_ZN5Print11printNumberEmh+0x48>
     b02:	0f 2e       	mov	r0, r31
     b04:	fa e0       	ldi	r31, 0x0A	; 10
     b06:	6f 2e       	mov	r6, r31
     b08:	f0 2d       	mov	r31, r0
     b0a:	7e 01       	movw	r14, r28
     b0c:	a1 e2       	ldi	r26, 0x21	; 33
     b0e:	ea 0e       	add	r14, r26
     b10:	f1 1c       	adc	r15, r1
     b12:	86 2c       	mov	r8, r6
     b14:	91 2c       	mov	r9, r1
     b16:	a1 2c       	mov	r10, r1
     b18:	b1 2c       	mov	r11, r1
     b1a:	67 2d       	mov	r22, r7
     b1c:	73 2f       	mov	r23, r19
     b1e:	a5 01       	movw	r20, r10
     b20:	94 01       	movw	r18, r8
     b22:	0e 94 a2 24 	call	0x4944	; 0x4944 <__udivmodsi4>
     b26:	e2 2f       	mov	r30, r18
     b28:	73 2f       	mov	r23, r19
     b2a:	02 2f       	mov	r16, r18
     b2c:	13 2f       	mov	r17, r19
     b2e:	24 2f       	mov	r18, r20
     b30:	35 2f       	mov	r19, r21
     b32:	f7 2d       	mov	r31, r7
     b34:	6e 9e       	mul	r6, r30
     b36:	f0 19       	sub	r31, r0
     b38:	11 24       	eor	r1, r1
     b3a:	b1 e0       	ldi	r27, 0x01	; 1
     b3c:	eb 1a       	sub	r14, r27
     b3e:	f1 08       	sbc	r15, r1
     b40:	fa 30       	cpi	r31, 0x0A	; 10
     b42:	10 f4       	brcc	.+4      	; 0xb48 <_ZN5Print11printNumberEmh+0x86>
     b44:	f0 5d       	subi	r31, 0xD0	; 208
     b46:	01 c0       	rjmp	.+2      	; 0xb4a <_ZN5Print11printNumberEmh+0x88>
     b48:	f9 5c       	subi	r31, 0xC9	; 201
     b4a:	d7 01       	movw	r26, r14
     b4c:	fc 93       	st	X, r31
     b4e:	01 2b       	or	r16, r17
     b50:	02 2b       	or	r16, r18
     b52:	03 2b       	or	r16, r19
     b54:	29 f0       	breq	.+10     	; 0xb60 <_ZN5Print11printNumberEmh+0x9e>
     b56:	7e 2e       	mov	r7, r30
     b58:	37 2f       	mov	r19, r23
     b5a:	84 2f       	mov	r24, r20
     b5c:	95 2f       	mov	r25, r21
     b5e:	dd cf       	rjmp	.-70     	; 0xb1a <_ZN5Print11printNumberEmh+0x58>
     b60:	e1 14       	cp	r14, r1
     b62:	f1 04       	cpc	r15, r1
     b64:	91 f0       	breq	.+36     	; 0xb8a <_ZN5Print11printNumberEmh+0xc8>
     b66:	f7 01       	movw	r30, r14
     b68:	01 90       	ld	r0, Z+
     b6a:	00 20       	and	r0, r0
     b6c:	e9 f7       	brne	.-6      	; 0xb68 <_ZN5Print11printNumberEmh+0xa6>
     b6e:	31 97       	sbiw	r30, 0x01	; 1
     b70:	af 01       	movw	r20, r30
     b72:	4e 19       	sub	r20, r14
     b74:	5f 09       	sbc	r21, r15
     b76:	d6 01       	movw	r26, r12
     b78:	ed 91       	ld	r30, X+
     b7a:	fc 91       	ld	r31, X
     b7c:	02 80       	ldd	r0, Z+2	; 0x02
     b7e:	f3 81       	ldd	r31, Z+3	; 0x03
     b80:	e0 2d       	mov	r30, r0
     b82:	b7 01       	movw	r22, r14
     b84:	c6 01       	movw	r24, r12
     b86:	09 95       	icall
     b88:	02 c0       	rjmp	.+4      	; 0xb8e <_ZN5Print11printNumberEmh+0xcc>
     b8a:	80 e0       	ldi	r24, 0x00	; 0
     b8c:	90 e0       	ldi	r25, 0x00	; 0
     b8e:	a1 96       	adiw	r28, 0x21	; 33
     b90:	0f b6       	in	r0, 0x3f	; 63
     b92:	f8 94       	cli
     b94:	de bf       	out	0x3e, r29	; 62
     b96:	0f be       	out	0x3f, r0	; 63
     b98:	cd bf       	out	0x3d, r28	; 61
     b9a:	df 91       	pop	r29
     b9c:	cf 91       	pop	r28
     b9e:	1f 91       	pop	r17
     ba0:	0f 91       	pop	r16
     ba2:	ff 90       	pop	r15
     ba4:	ef 90       	pop	r14
     ba6:	df 90       	pop	r13
     ba8:	cf 90       	pop	r12
     baa:	bf 90       	pop	r11
     bac:	af 90       	pop	r10
     bae:	9f 90       	pop	r9
     bb0:	8f 90       	pop	r8
     bb2:	7f 90       	pop	r7
     bb4:	6f 90       	pop	r6
     bb6:	08 95       	ret

00000bb8 <_ZN5Print5printEmi>:
     bb8:	21 15       	cp	r18, r1
     bba:	31 05       	cpc	r19, r1
     bbc:	49 f4       	brne	.+18     	; 0xbd0 <_ZN5Print5printEmi+0x18>
     bbe:	dc 01       	movw	r26, r24
     bc0:	ed 91       	ld	r30, X+
     bc2:	fc 91       	ld	r31, X
     bc4:	01 90       	ld	r0, Z+
     bc6:	f0 81       	ld	r31, Z
     bc8:	e0 2d       	mov	r30, r0
     bca:	64 2f       	mov	r22, r20
     bcc:	09 95       	icall
     bce:	08 95       	ret
     bd0:	0e 94 61 05 	call	0xac2	; 0xac2 <_ZN5Print11printNumberEmh>
     bd4:	08 95       	ret

00000bd6 <_ZN5Print5printEhi>:
     bd6:	9a 01       	movw	r18, r20
     bd8:	46 2f       	mov	r20, r22
     bda:	50 e0       	ldi	r21, 0x00	; 0
     bdc:	60 e0       	ldi	r22, 0x00	; 0
     bde:	70 e0       	ldi	r23, 0x00	; 0
     be0:	0e 94 dc 05 	call	0xbb8	; 0xbb8 <_ZN5Print5printEmi>
     be4:	08 95       	ret

00000be6 <_Z12disableTimerh>:
     be6:	81 30       	cpi	r24, 0x01	; 1
     be8:	39 f0       	breq	.+14     	; 0xbf8 <_Z12disableTimerh+0x12>
     bea:	18 f0       	brcs	.+6      	; 0xbf2 <_Z12disableTimerh+0xc>
     bec:	82 30       	cpi	r24, 0x02	; 2
     bee:	51 f0       	breq	.+20     	; 0xc04 <_Z12disableTimerh+0x1e>
     bf0:	08 95       	ret
     bf2:	10 92 6e 00 	sts	0x006E, r1
     bf6:	08 95       	ret
     bf8:	ef e6       	ldi	r30, 0x6F	; 111
     bfa:	f0 e0       	ldi	r31, 0x00	; 0
     bfc:	80 81       	ld	r24, Z
     bfe:	8d 7f       	andi	r24, 0xFD	; 253
     c00:	80 83       	st	Z, r24
     c02:	08 95       	ret
     c04:	e0 e7       	ldi	r30, 0x70	; 112
     c06:	f0 e0       	ldi	r31, 0x00	; 0
     c08:	80 81       	ld	r24, Z
     c0a:	8d 7f       	andi	r24, 0xFD	; 253
     c0c:	80 83       	st	Z, r24
     c0e:	81 e0       	ldi	r24, 0x01	; 1
     c10:	80 93 b0 00 	sts	0x00B0, r24
     c14:	e1 eb       	ldi	r30, 0xB1	; 177
     c16:	f0 e0       	ldi	r31, 0x00	; 0
     c18:	80 81       	ld	r24, Z
     c1a:	88 7f       	andi	r24, 0xF8	; 248
     c1c:	84 60       	ori	r24, 0x04	; 4
     c1e:	80 83       	st	Z, r24
     c20:	10 92 b3 00 	sts	0x00B3, r1
     c24:	08 95       	ret

00000c26 <_Z6noToneh>:
     c26:	cf 93       	push	r28
     c28:	c8 2f       	mov	r28, r24
     c2a:	80 91 06 01 	lds	r24, 0x0106
     c2e:	8c 13       	cpse	r24, r28
     c30:	07 c0       	rjmp	.+14     	; 0xc40 <_Z6noToneh+0x1a>
     c32:	e8 e6       	ldi	r30, 0x68	; 104
     c34:	f0 e0       	ldi	r31, 0x00	; 0
     c36:	84 91       	lpm	r24, Z
     c38:	9f ef       	ldi	r25, 0xFF	; 255
     c3a:	90 93 06 01 	sts	0x0106, r25
     c3e:	01 c0       	rjmp	.+2      	; 0xc42 <_Z6noToneh+0x1c>
     c40:	8f ef       	ldi	r24, 0xFF	; 255
     c42:	0e 94 f3 05 	call	0xbe6	; 0xbe6 <_Z12disableTimerh>
     c46:	60 e0       	ldi	r22, 0x00	; 0
     c48:	8c 2f       	mov	r24, r28
     c4a:	0e 94 5b 08 	call	0x10b6	; 0x10b6 <digitalWrite>
     c4e:	cf 91       	pop	r28
     c50:	08 95       	ret

00000c52 <__vector_7>:
     c52:	1f 92       	push	r1
     c54:	0f 92       	push	r0
     c56:	0f b6       	in	r0, 0x3f	; 63
     c58:	0f 92       	push	r0
     c5a:	11 24       	eor	r1, r1
     c5c:	2f 93       	push	r18
     c5e:	3f 93       	push	r19
     c60:	4f 93       	push	r20
     c62:	5f 93       	push	r21
     c64:	6f 93       	push	r22
     c66:	7f 93       	push	r23
     c68:	8f 93       	push	r24
     c6a:	9f 93       	push	r25
     c6c:	af 93       	push	r26
     c6e:	bf 93       	push	r27
     c70:	ef 93       	push	r30
     c72:	ff 93       	push	r31
     c74:	80 91 7f 02 	lds	r24, 0x027F
     c78:	90 91 80 02 	lds	r25, 0x0280
     c7c:	a0 91 81 02 	lds	r26, 0x0281
     c80:	b0 91 82 02 	lds	r27, 0x0282
     c84:	89 2b       	or	r24, r25
     c86:	8a 2b       	or	r24, r26
     c88:	8b 2b       	or	r24, r27
     c8a:	51 f1       	breq	.+84     	; 0xce0 <__vector_7+0x8e>
     c8c:	80 91 7c 02 	lds	r24, 0x027C
     c90:	e0 91 7d 02 	lds	r30, 0x027D
     c94:	f0 91 7e 02 	lds	r31, 0x027E
     c98:	90 81       	ld	r25, Z
     c9a:	89 27       	eor	r24, r25
     c9c:	80 83       	st	Z, r24
     c9e:	80 91 7f 02 	lds	r24, 0x027F
     ca2:	90 91 80 02 	lds	r25, 0x0280
     ca6:	a0 91 81 02 	lds	r26, 0x0281
     caa:	b0 91 82 02 	lds	r27, 0x0282
     cae:	18 16       	cp	r1, r24
     cb0:	19 06       	cpc	r1, r25
     cb2:	1a 06       	cpc	r1, r26
     cb4:	1b 06       	cpc	r1, r27
     cb6:	c4 f4       	brge	.+48     	; 0xce8 <__vector_7+0x96>
     cb8:	80 91 7f 02 	lds	r24, 0x027F
     cbc:	90 91 80 02 	lds	r25, 0x0280
     cc0:	a0 91 81 02 	lds	r26, 0x0281
     cc4:	b0 91 82 02 	lds	r27, 0x0282
     cc8:	01 97       	sbiw	r24, 0x01	; 1
     cca:	a1 09       	sbc	r26, r1
     ccc:	b1 09       	sbc	r27, r1
     cce:	80 93 7f 02 	sts	0x027F, r24
     cd2:	90 93 80 02 	sts	0x0280, r25
     cd6:	a0 93 81 02 	sts	0x0281, r26
     cda:	b0 93 82 02 	sts	0x0282, r27
     cde:	04 c0       	rjmp	.+8      	; 0xce8 <__vector_7+0x96>
     ce0:	80 91 06 01 	lds	r24, 0x0106
     ce4:	0e 94 13 06 	call	0xc26	; 0xc26 <_Z6noToneh>
     ce8:	ff 91       	pop	r31
     cea:	ef 91       	pop	r30
     cec:	bf 91       	pop	r27
     cee:	af 91       	pop	r26
     cf0:	9f 91       	pop	r25
     cf2:	8f 91       	pop	r24
     cf4:	7f 91       	pop	r23
     cf6:	6f 91       	pop	r22
     cf8:	5f 91       	pop	r21
     cfa:	4f 91       	pop	r20
     cfc:	3f 91       	pop	r19
     cfe:	2f 91       	pop	r18
     d00:	0f 90       	pop	r0
     d02:	0f be       	out	0x3f, r0	; 63
     d04:	0f 90       	pop	r0
     d06:	1f 90       	pop	r1
     d08:	18 95       	reti

00000d0a <attachInterrupt>:
     d0a:	82 30       	cpi	r24, 0x02	; 2
     d0c:	00 f5       	brcc	.+64     	; 0xd4e <attachInterrupt+0x44>
     d0e:	e8 2f       	mov	r30, r24
     d10:	f0 e0       	ldi	r31, 0x00	; 0
     d12:	ee 0f       	add	r30, r30
     d14:	ff 1f       	adc	r31, r31
     d16:	ed 57       	subi	r30, 0x7D	; 125
     d18:	fd 4f       	sbci	r31, 0xFD	; 253
     d1a:	71 83       	std	Z+1, r23	; 0x01
     d1c:	60 83       	st	Z, r22
     d1e:	88 23       	and	r24, r24
     d20:	19 f0       	breq	.+6      	; 0xd28 <attachInterrupt+0x1e>
     d22:	81 30       	cpi	r24, 0x01	; 1
     d24:	49 f0       	breq	.+18     	; 0xd38 <attachInterrupt+0x2e>
     d26:	08 95       	ret
     d28:	e9 e6       	ldi	r30, 0x69	; 105
     d2a:	f0 e0       	ldi	r31, 0x00	; 0
     d2c:	80 81       	ld	r24, Z
     d2e:	8c 7f       	andi	r24, 0xFC	; 252
     d30:	48 2b       	or	r20, r24
     d32:	40 83       	st	Z, r20
     d34:	e8 9a       	sbi	0x1d, 0	; 29
     d36:	08 95       	ret
     d38:	e9 e6       	ldi	r30, 0x69	; 105
     d3a:	f0 e0       	ldi	r31, 0x00	; 0
     d3c:	80 81       	ld	r24, Z
     d3e:	44 0f       	add	r20, r20
     d40:	55 1f       	adc	r21, r21
     d42:	44 0f       	add	r20, r20
     d44:	55 1f       	adc	r21, r21
     d46:	83 7f       	andi	r24, 0xF3	; 243
     d48:	48 2b       	or	r20, r24
     d4a:	40 83       	st	Z, r20
     d4c:	e9 9a       	sbi	0x1d, 1	; 29
     d4e:	08 95       	ret

00000d50 <__vector_1>:
     d50:	1f 92       	push	r1
     d52:	0f 92       	push	r0
     d54:	0f b6       	in	r0, 0x3f	; 63
     d56:	0f 92       	push	r0
     d58:	11 24       	eor	r1, r1
     d5a:	2f 93       	push	r18
     d5c:	3f 93       	push	r19
     d5e:	4f 93       	push	r20
     d60:	5f 93       	push	r21
     d62:	6f 93       	push	r22
     d64:	7f 93       	push	r23
     d66:	8f 93       	push	r24
     d68:	9f 93       	push	r25
     d6a:	af 93       	push	r26
     d6c:	bf 93       	push	r27
     d6e:	ef 93       	push	r30
     d70:	ff 93       	push	r31
     d72:	80 91 83 02 	lds	r24, 0x0283
     d76:	90 91 84 02 	lds	r25, 0x0284
     d7a:	89 2b       	or	r24, r25
     d7c:	29 f0       	breq	.+10     	; 0xd88 <__vector_1+0x38>
     d7e:	e0 91 83 02 	lds	r30, 0x0283
     d82:	f0 91 84 02 	lds	r31, 0x0284
     d86:	09 95       	icall
     d88:	ff 91       	pop	r31
     d8a:	ef 91       	pop	r30
     d8c:	bf 91       	pop	r27
     d8e:	af 91       	pop	r26
     d90:	9f 91       	pop	r25
     d92:	8f 91       	pop	r24
     d94:	7f 91       	pop	r23
     d96:	6f 91       	pop	r22
     d98:	5f 91       	pop	r21
     d9a:	4f 91       	pop	r20
     d9c:	3f 91       	pop	r19
     d9e:	2f 91       	pop	r18
     da0:	0f 90       	pop	r0
     da2:	0f be       	out	0x3f, r0	; 63
     da4:	0f 90       	pop	r0
     da6:	1f 90       	pop	r1
     da8:	18 95       	reti

00000daa <__vector_2>:
     daa:	1f 92       	push	r1
     dac:	0f 92       	push	r0
     dae:	0f b6       	in	r0, 0x3f	; 63
     db0:	0f 92       	push	r0
     db2:	11 24       	eor	r1, r1
     db4:	2f 93       	push	r18
     db6:	3f 93       	push	r19
     db8:	4f 93       	push	r20
     dba:	5f 93       	push	r21
     dbc:	6f 93       	push	r22
     dbe:	7f 93       	push	r23
     dc0:	8f 93       	push	r24
     dc2:	9f 93       	push	r25
     dc4:	af 93       	push	r26
     dc6:	bf 93       	push	r27
     dc8:	ef 93       	push	r30
     dca:	ff 93       	push	r31
     dcc:	80 91 85 02 	lds	r24, 0x0285
     dd0:	90 91 86 02 	lds	r25, 0x0286
     dd4:	89 2b       	or	r24, r25
     dd6:	29 f0       	breq	.+10     	; 0xde2 <__vector_2+0x38>
     dd8:	e0 91 85 02 	lds	r30, 0x0285
     ddc:	f0 91 86 02 	lds	r31, 0x0286
     de0:	09 95       	icall
     de2:	ff 91       	pop	r31
     de4:	ef 91       	pop	r30
     de6:	bf 91       	pop	r27
     de8:	af 91       	pop	r26
     dea:	9f 91       	pop	r25
     dec:	8f 91       	pop	r24
     dee:	7f 91       	pop	r23
     df0:	6f 91       	pop	r22
     df2:	5f 91       	pop	r21
     df4:	4f 91       	pop	r20
     df6:	3f 91       	pop	r19
     df8:	2f 91       	pop	r18
     dfa:	0f 90       	pop	r0
     dfc:	0f be       	out	0x3f, r0	; 63
     dfe:	0f 90       	pop	r0
     e00:	1f 90       	pop	r1
     e02:	18 95       	reti

00000e04 <__vector_16>:
     e04:	1f 92       	push	r1
     e06:	0f 92       	push	r0
     e08:	0f b6       	in	r0, 0x3f	; 63
     e0a:	0f 92       	push	r0
     e0c:	11 24       	eor	r1, r1
     e0e:	2f 93       	push	r18
     e10:	3f 93       	push	r19
     e12:	8f 93       	push	r24
     e14:	9f 93       	push	r25
     e16:	af 93       	push	r26
     e18:	bf 93       	push	r27
     e1a:	80 91 88 02 	lds	r24, 0x0288
     e1e:	90 91 89 02 	lds	r25, 0x0289
     e22:	a0 91 8a 02 	lds	r26, 0x028A
     e26:	b0 91 8b 02 	lds	r27, 0x028B
     e2a:	30 91 87 02 	lds	r19, 0x0287
     e2e:	23 e0       	ldi	r18, 0x03	; 3
     e30:	23 0f       	add	r18, r19
     e32:	2d 37       	cpi	r18, 0x7D	; 125
     e34:	20 f4       	brcc	.+8      	; 0xe3e <__vector_16+0x3a>
     e36:	01 96       	adiw	r24, 0x01	; 1
     e38:	a1 1d       	adc	r26, r1
     e3a:	b1 1d       	adc	r27, r1
     e3c:	05 c0       	rjmp	.+10     	; 0xe48 <__vector_16+0x44>
     e3e:	26 e8       	ldi	r18, 0x86	; 134
     e40:	23 0f       	add	r18, r19
     e42:	02 96       	adiw	r24, 0x02	; 2
     e44:	a1 1d       	adc	r26, r1
     e46:	b1 1d       	adc	r27, r1
     e48:	20 93 87 02 	sts	0x0287, r18
     e4c:	80 93 88 02 	sts	0x0288, r24
     e50:	90 93 89 02 	sts	0x0289, r25
     e54:	a0 93 8a 02 	sts	0x028A, r26
     e58:	b0 93 8b 02 	sts	0x028B, r27
     e5c:	80 91 8c 02 	lds	r24, 0x028C
     e60:	90 91 8d 02 	lds	r25, 0x028D
     e64:	a0 91 8e 02 	lds	r26, 0x028E
     e68:	b0 91 8f 02 	lds	r27, 0x028F
     e6c:	01 96       	adiw	r24, 0x01	; 1
     e6e:	a1 1d       	adc	r26, r1
     e70:	b1 1d       	adc	r27, r1
     e72:	80 93 8c 02 	sts	0x028C, r24
     e76:	90 93 8d 02 	sts	0x028D, r25
     e7a:	a0 93 8e 02 	sts	0x028E, r26
     e7e:	b0 93 8f 02 	sts	0x028F, r27
     e82:	bf 91       	pop	r27
     e84:	af 91       	pop	r26
     e86:	9f 91       	pop	r25
     e88:	8f 91       	pop	r24
     e8a:	3f 91       	pop	r19
     e8c:	2f 91       	pop	r18
     e8e:	0f 90       	pop	r0
     e90:	0f be       	out	0x3f, r0	; 63
     e92:	0f 90       	pop	r0
     e94:	1f 90       	pop	r1
     e96:	18 95       	reti

00000e98 <millis>:
     e98:	2f b7       	in	r18, 0x3f	; 63
     e9a:	f8 94       	cli
     e9c:	60 91 88 02 	lds	r22, 0x0288
     ea0:	70 91 89 02 	lds	r23, 0x0289
     ea4:	80 91 8a 02 	lds	r24, 0x028A
     ea8:	90 91 8b 02 	lds	r25, 0x028B
     eac:	2f bf       	out	0x3f, r18	; 63
     eae:	08 95       	ret

00000eb0 <micros>:
     eb0:	3f b7       	in	r19, 0x3f	; 63
     eb2:	f8 94       	cli
     eb4:	80 91 8c 02 	lds	r24, 0x028C
     eb8:	90 91 8d 02 	lds	r25, 0x028D
     ebc:	a0 91 8e 02 	lds	r26, 0x028E
     ec0:	b0 91 8f 02 	lds	r27, 0x028F
     ec4:	26 b5       	in	r18, 0x26	; 38
     ec6:	a8 9b       	sbis	0x15, 0	; 21
     ec8:	05 c0       	rjmp	.+10     	; 0xed4 <micros+0x24>
     eca:	2f 3f       	cpi	r18, 0xFF	; 255
     ecc:	19 f0       	breq	.+6      	; 0xed4 <micros+0x24>
     ece:	01 96       	adiw	r24, 0x01	; 1
     ed0:	a1 1d       	adc	r26, r1
     ed2:	b1 1d       	adc	r27, r1
     ed4:	3f bf       	out	0x3f, r19	; 63
     ed6:	ba 2f       	mov	r27, r26
     ed8:	a9 2f       	mov	r26, r25
     eda:	98 2f       	mov	r25, r24
     edc:	88 27       	eor	r24, r24
     ede:	82 0f       	add	r24, r18
     ee0:	91 1d       	adc	r25, r1
     ee2:	a1 1d       	adc	r26, r1
     ee4:	b1 1d       	adc	r27, r1
     ee6:	bc 01       	movw	r22, r24
     ee8:	cd 01       	movw	r24, r26
     eea:	66 0f       	add	r22, r22
     eec:	77 1f       	adc	r23, r23
     eee:	88 1f       	adc	r24, r24
     ef0:	99 1f       	adc	r25, r25
     ef2:	66 0f       	add	r22, r22
     ef4:	77 1f       	adc	r23, r23
     ef6:	88 1f       	adc	r24, r24
     ef8:	99 1f       	adc	r25, r25
     efa:	08 95       	ret

00000efc <delay>:
     efc:	cf 92       	push	r12
     efe:	df 92       	push	r13
     f00:	ef 92       	push	r14
     f02:	ff 92       	push	r15
     f04:	cf 93       	push	r28
     f06:	df 93       	push	r29
     f08:	6b 01       	movw	r12, r22
     f0a:	7c 01       	movw	r14, r24
     f0c:	0e 94 58 07 	call	0xeb0	; 0xeb0 <micros>
     f10:	eb 01       	movw	r28, r22
     f12:	c1 14       	cp	r12, r1
     f14:	d1 04       	cpc	r13, r1
     f16:	e1 04       	cpc	r14, r1
     f18:	f1 04       	cpc	r15, r1
     f1a:	99 f0       	breq	.+38     	; 0xf42 <delay+0x46>
     f1c:	0e 94 58 07 	call	0xeb0	; 0xeb0 <micros>
     f20:	6c 1b       	sub	r22, r28
     f22:	7d 0b       	sbc	r23, r29
     f24:	68 3e       	cpi	r22, 0xE8	; 232
     f26:	73 40       	sbci	r23, 0x03	; 3
     f28:	38 f0       	brcs	.+14     	; 0xf38 <delay+0x3c>
     f2a:	81 e0       	ldi	r24, 0x01	; 1
     f2c:	c8 1a       	sub	r12, r24
     f2e:	d1 08       	sbc	r13, r1
     f30:	e1 08       	sbc	r14, r1
     f32:	f1 08       	sbc	r15, r1
     f34:	c8 51       	subi	r28, 0x18	; 24
     f36:	dc 4f       	sbci	r29, 0xFC	; 252
     f38:	c1 14       	cp	r12, r1
     f3a:	d1 04       	cpc	r13, r1
     f3c:	e1 04       	cpc	r14, r1
     f3e:	f1 04       	cpc	r15, r1
     f40:	69 f7       	brne	.-38     	; 0xf1c <delay+0x20>
     f42:	df 91       	pop	r29
     f44:	cf 91       	pop	r28
     f46:	ff 90       	pop	r15
     f48:	ef 90       	pop	r14
     f4a:	df 90       	pop	r13
     f4c:	cf 90       	pop	r12
     f4e:	08 95       	ret

00000f50 <delayMicroseconds>:
     f50:	01 97       	sbiw	r24, 0x01	; 1
     f52:	00 97       	sbiw	r24, 0x00	; 0
     f54:	39 f0       	breq	.+14     	; 0xf64 <delayMicroseconds+0x14>
     f56:	88 0f       	add	r24, r24
     f58:	99 1f       	adc	r25, r25
     f5a:	88 0f       	add	r24, r24
     f5c:	99 1f       	adc	r25, r25
     f5e:	02 97       	sbiw	r24, 0x02	; 2
     f60:	01 97       	sbiw	r24, 0x01	; 1
     f62:	f1 f7       	brne	.-4      	; 0xf60 <delayMicroseconds+0x10>
     f64:	08 95       	ret

00000f66 <init>:
     f66:	78 94       	sei
     f68:	84 b5       	in	r24, 0x24	; 36
     f6a:	82 60       	ori	r24, 0x02	; 2
     f6c:	84 bd       	out	0x24, r24	; 36
     f6e:	84 b5       	in	r24, 0x24	; 36
     f70:	81 60       	ori	r24, 0x01	; 1
     f72:	84 bd       	out	0x24, r24	; 36
     f74:	85 b5       	in	r24, 0x25	; 37
     f76:	82 60       	ori	r24, 0x02	; 2
     f78:	85 bd       	out	0x25, r24	; 37
     f7a:	85 b5       	in	r24, 0x25	; 37
     f7c:	81 60       	ori	r24, 0x01	; 1
     f7e:	85 bd       	out	0x25, r24	; 37
     f80:	ee e6       	ldi	r30, 0x6E	; 110
     f82:	f0 e0       	ldi	r31, 0x00	; 0
     f84:	80 81       	ld	r24, Z
     f86:	81 60       	ori	r24, 0x01	; 1
     f88:	80 83       	st	Z, r24
     f8a:	e1 e8       	ldi	r30, 0x81	; 129
     f8c:	f0 e0       	ldi	r31, 0x00	; 0
     f8e:	10 82       	st	Z, r1
     f90:	80 81       	ld	r24, Z
     f92:	82 60       	ori	r24, 0x02	; 2
     f94:	80 83       	st	Z, r24
     f96:	80 81       	ld	r24, Z
     f98:	81 60       	ori	r24, 0x01	; 1
     f9a:	80 83       	st	Z, r24
     f9c:	e0 e8       	ldi	r30, 0x80	; 128
     f9e:	f0 e0       	ldi	r31, 0x00	; 0
     fa0:	80 81       	ld	r24, Z
     fa2:	81 60       	ori	r24, 0x01	; 1
     fa4:	80 83       	st	Z, r24
     fa6:	e1 eb       	ldi	r30, 0xB1	; 177
     fa8:	f0 e0       	ldi	r31, 0x00	; 0
     faa:	80 81       	ld	r24, Z
     fac:	84 60       	ori	r24, 0x04	; 4
     fae:	80 83       	st	Z, r24
     fb0:	e0 eb       	ldi	r30, 0xB0	; 176
     fb2:	f0 e0       	ldi	r31, 0x00	; 0
     fb4:	80 81       	ld	r24, Z
     fb6:	81 60       	ori	r24, 0x01	; 1
     fb8:	80 83       	st	Z, r24
     fba:	ea e7       	ldi	r30, 0x7A	; 122
     fbc:	f0 e0       	ldi	r31, 0x00	; 0
     fbe:	80 81       	ld	r24, Z
     fc0:	84 60       	ori	r24, 0x04	; 4
     fc2:	80 83       	st	Z, r24
     fc4:	80 81       	ld	r24, Z
     fc6:	82 60       	ori	r24, 0x02	; 2
     fc8:	80 83       	st	Z, r24
     fca:	80 81       	ld	r24, Z
     fcc:	81 60       	ori	r24, 0x01	; 1
     fce:	80 83       	st	Z, r24
     fd0:	80 81       	ld	r24, Z
     fd2:	80 68       	ori	r24, 0x80	; 128
     fd4:	80 83       	st	Z, r24
     fd6:	10 92 c1 00 	sts	0x00C1, r1
     fda:	08 95       	ret

00000fdc <turnOffPWM>:
     fdc:	83 30       	cpi	r24, 0x03	; 3
     fde:	69 f0       	breq	.+26     	; 0xffa <turnOffPWM+0x1e>
     fe0:	28 f4       	brcc	.+10     	; 0xfec <turnOffPWM+0x10>
     fe2:	81 30       	cpi	r24, 0x01	; 1
     fe4:	b1 f0       	breq	.+44     	; 0x1012 <turnOffPWM+0x36>
     fe6:	82 30       	cpi	r24, 0x02	; 2
     fe8:	c1 f0       	breq	.+48     	; 0x101a <turnOffPWM+0x3e>
     fea:	08 95       	ret
     fec:	86 30       	cpi	r24, 0x06	; 6
     fee:	c9 f0       	breq	.+50     	; 0x1022 <turnOffPWM+0x46>
     ff0:	87 30       	cpi	r24, 0x07	; 7
     ff2:	e9 f0       	breq	.+58     	; 0x102e <turnOffPWM+0x52>
     ff4:	84 30       	cpi	r24, 0x04	; 4
     ff6:	01 f5       	brne	.+64     	; 0x1038 <turnOffPWM+0x5c>
     ff8:	06 c0       	rjmp	.+12     	; 0x1006 <turnOffPWM+0x2a>
     ffa:	e0 e8       	ldi	r30, 0x80	; 128
     ffc:	f0 e0       	ldi	r31, 0x00	; 0
     ffe:	80 81       	ld	r24, Z
    1000:	8f 77       	andi	r24, 0x7F	; 127
    1002:	80 83       	st	Z, r24
    1004:	08 95       	ret
    1006:	e0 e8       	ldi	r30, 0x80	; 128
    1008:	f0 e0       	ldi	r31, 0x00	; 0
    100a:	80 81       	ld	r24, Z
    100c:	8f 7d       	andi	r24, 0xDF	; 223
    100e:	80 83       	st	Z, r24
    1010:	08 95       	ret
    1012:	84 b5       	in	r24, 0x24	; 36
    1014:	8f 77       	andi	r24, 0x7F	; 127
    1016:	84 bd       	out	0x24, r24	; 36
    1018:	08 95       	ret
    101a:	84 b5       	in	r24, 0x24	; 36
    101c:	8f 7d       	andi	r24, 0xDF	; 223
    101e:	84 bd       	out	0x24, r24	; 36
    1020:	08 95       	ret
    1022:	e0 eb       	ldi	r30, 0xB0	; 176
    1024:	f0 e0       	ldi	r31, 0x00	; 0
    1026:	80 81       	ld	r24, Z
    1028:	8f 77       	andi	r24, 0x7F	; 127
    102a:	80 83       	st	Z, r24
    102c:	08 95       	ret
    102e:	e0 eb       	ldi	r30, 0xB0	; 176
    1030:	f0 e0       	ldi	r31, 0x00	; 0
    1032:	80 81       	ld	r24, Z
    1034:	8f 7d       	andi	r24, 0xDF	; 223
    1036:	80 83       	st	Z, r24
    1038:	08 95       	ret

0000103a <pinMode>:
    103a:	cf 93       	push	r28
    103c:	df 93       	push	r29
    103e:	90 e0       	ldi	r25, 0x00	; 0
    1040:	fc 01       	movw	r30, r24
    1042:	e3 58       	subi	r30, 0x83	; 131
    1044:	ff 4f       	sbci	r31, 0xFF	; 255
    1046:	24 91       	lpm	r18, Z
    1048:	fc 01       	movw	r30, r24
    104a:	ef 56       	subi	r30, 0x6F	; 111
    104c:	ff 4f       	sbci	r31, 0xFF	; 255
    104e:	84 91       	lpm	r24, Z
    1050:	88 23       	and	r24, r24
    1052:	71 f1       	breq	.+92     	; 0x10b0 <pinMode+0x76>
    1054:	90 e0       	ldi	r25, 0x00	; 0
    1056:	88 0f       	add	r24, r24
    1058:	99 1f       	adc	r25, r25
    105a:	fc 01       	movw	r30, r24
    105c:	e7 54       	subi	r30, 0x47	; 71
    105e:	ff 4f       	sbci	r31, 0xFF	; 255
    1060:	a5 91       	lpm	r26, Z+
    1062:	b4 91       	lpm	r27, Z
    1064:	81 55       	subi	r24, 0x51	; 81
    1066:	9f 4f       	sbci	r25, 0xFF	; 255
    1068:	fc 01       	movw	r30, r24
    106a:	c5 91       	lpm	r28, Z+
    106c:	d4 91       	lpm	r29, Z
    106e:	61 11       	cpse	r22, r1
    1070:	0b c0       	rjmp	.+22     	; 0x1088 <pinMode+0x4e>
    1072:	8f b7       	in	r24, 0x3f	; 63
    1074:	f8 94       	cli
    1076:	9c 91       	ld	r25, X
    1078:	20 95       	com	r18
    107a:	92 23       	and	r25, r18
    107c:	9c 93       	st	X, r25
    107e:	e8 81       	ld	r30, Y
    1080:	2e 23       	and	r18, r30
    1082:	28 83       	st	Y, r18
    1084:	8f bf       	out	0x3f, r24	; 63
    1086:	14 c0       	rjmp	.+40     	; 0x10b0 <pinMode+0x76>
    1088:	62 30       	cpi	r22, 0x02	; 2
    108a:	61 f4       	brne	.+24     	; 0x10a4 <pinMode+0x6a>
    108c:	8f b7       	in	r24, 0x3f	; 63
    108e:	f8 94       	cli
    1090:	3c 91       	ld	r19, X
    1092:	92 2f       	mov	r25, r18
    1094:	90 95       	com	r25
    1096:	93 23       	and	r25, r19
    1098:	9c 93       	st	X, r25
    109a:	e8 81       	ld	r30, Y
    109c:	2e 2b       	or	r18, r30
    109e:	28 83       	st	Y, r18
    10a0:	8f bf       	out	0x3f, r24	; 63
    10a2:	06 c0       	rjmp	.+12     	; 0x10b0 <pinMode+0x76>
    10a4:	8f b7       	in	r24, 0x3f	; 63
    10a6:	f8 94       	cli
    10a8:	ec 91       	ld	r30, X
    10aa:	2e 2b       	or	r18, r30
    10ac:	2c 93       	st	X, r18
    10ae:	8f bf       	out	0x3f, r24	; 63
    10b0:	df 91       	pop	r29
    10b2:	cf 91       	pop	r28
    10b4:	08 95       	ret

000010b6 <digitalWrite>:
    10b6:	1f 93       	push	r17
    10b8:	cf 93       	push	r28
    10ba:	df 93       	push	r29
    10bc:	c6 2f       	mov	r28, r22
    10be:	28 2f       	mov	r18, r24
    10c0:	30 e0       	ldi	r19, 0x00	; 0
    10c2:	f9 01       	movw	r30, r18
    10c4:	e7 59       	subi	r30, 0x97	; 151
    10c6:	ff 4f       	sbci	r31, 0xFF	; 255
    10c8:	84 91       	lpm	r24, Z
    10ca:	f9 01       	movw	r30, r18
    10cc:	e3 58       	subi	r30, 0x83	; 131
    10ce:	ff 4f       	sbci	r31, 0xFF	; 255
    10d0:	14 91       	lpm	r17, Z
    10d2:	f9 01       	movw	r30, r18
    10d4:	ef 56       	subi	r30, 0x6F	; 111
    10d6:	ff 4f       	sbci	r31, 0xFF	; 255
    10d8:	d4 91       	lpm	r29, Z
    10da:	dd 23       	and	r29, r29
    10dc:	c9 f0       	breq	.+50     	; 0x1110 <digitalWrite+0x5a>
    10de:	81 11       	cpse	r24, r1
    10e0:	0e 94 ee 07 	call	0xfdc	; 0xfdc <turnOffPWM>
    10e4:	2d 2f       	mov	r18, r29
    10e6:	30 e0       	ldi	r19, 0x00	; 0
    10e8:	f9 01       	movw	r30, r18
    10ea:	ee 0f       	add	r30, r30
    10ec:	ff 1f       	adc	r31, r31
    10ee:	e1 55       	subi	r30, 0x51	; 81
    10f0:	ff 4f       	sbci	r31, 0xFF	; 255
    10f2:	a5 91       	lpm	r26, Z+
    10f4:	b4 91       	lpm	r27, Z
    10f6:	8f b7       	in	r24, 0x3f	; 63
    10f8:	f8 94       	cli
    10fa:	c1 11       	cpse	r28, r1
    10fc:	05 c0       	rjmp	.+10     	; 0x1108 <digitalWrite+0x52>
    10fe:	ec 91       	ld	r30, X
    1100:	10 95       	com	r17
    1102:	1e 23       	and	r17, r30
    1104:	1c 93       	st	X, r17
    1106:	03 c0       	rjmp	.+6      	; 0x110e <digitalWrite+0x58>
    1108:	ec 91       	ld	r30, X
    110a:	1e 2b       	or	r17, r30
    110c:	1c 93       	st	X, r17
    110e:	8f bf       	out	0x3f, r24	; 63
    1110:	df 91       	pop	r29
    1112:	cf 91       	pop	r28
    1114:	1f 91       	pop	r17
    1116:	08 95       	ret

00001118 <digitalRead>:
    1118:	cf 93       	push	r28
    111a:	df 93       	push	r29
    111c:	28 2f       	mov	r18, r24
    111e:	30 e0       	ldi	r19, 0x00	; 0
    1120:	f9 01       	movw	r30, r18
    1122:	e7 59       	subi	r30, 0x97	; 151
    1124:	ff 4f       	sbci	r31, 0xFF	; 255
    1126:	84 91       	lpm	r24, Z
    1128:	f9 01       	movw	r30, r18
    112a:	e3 58       	subi	r30, 0x83	; 131
    112c:	ff 4f       	sbci	r31, 0xFF	; 255
    112e:	d4 91       	lpm	r29, Z
    1130:	f9 01       	movw	r30, r18
    1132:	ef 56       	subi	r30, 0x6F	; 111
    1134:	ff 4f       	sbci	r31, 0xFF	; 255
    1136:	c4 91       	lpm	r28, Z
    1138:	cc 23       	and	r28, r28
    113a:	99 f0       	breq	.+38     	; 0x1162 <digitalRead+0x4a>
    113c:	81 11       	cpse	r24, r1
    113e:	0e 94 ee 07 	call	0xfdc	; 0xfdc <turnOffPWM>
    1142:	2c 2f       	mov	r18, r28
    1144:	30 e0       	ldi	r19, 0x00	; 0
    1146:	f9 01       	movw	r30, r18
    1148:	ee 0f       	add	r30, r30
    114a:	ff 1f       	adc	r31, r31
    114c:	eb 55       	subi	r30, 0x5B	; 91
    114e:	ff 4f       	sbci	r31, 0xFF	; 255
    1150:	a5 91       	lpm	r26, Z+
    1152:	b4 91       	lpm	r27, Z
    1154:	ec 91       	ld	r30, X
    1156:	de 23       	and	r29, r30
    1158:	81 e0       	ldi	r24, 0x01	; 1
    115a:	90 e0       	ldi	r25, 0x00	; 0
    115c:	21 f4       	brne	.+8      	; 0x1166 <digitalRead+0x4e>
    115e:	80 e0       	ldi	r24, 0x00	; 0
    1160:	02 c0       	rjmp	.+4      	; 0x1166 <digitalRead+0x4e>
    1162:	80 e0       	ldi	r24, 0x00	; 0
    1164:	90 e0       	ldi	r25, 0x00	; 0
    1166:	df 91       	pop	r29
    1168:	cf 91       	pop	r28
    116a:	08 95       	ret

0000116c <_ZN26Adafruit_VS1053_FilePlayer12useInterruptEh>:
    116c:	cf 93       	push	r28
    116e:	90 93 9b 02 	sts	0x029B, r25
    1172:	80 93 9a 02 	sts	0x029A, r24
    1176:	6f 3f       	cpi	r22, 0xFF	; 255
    1178:	49 f4       	brne	.+18     	; 0x118c <_ZN26Adafruit_VS1053_FilePlayer12useInterruptEh+0x20>
    117a:	8f ea       	ldi	r24, 0xAF	; 175
    117c:	87 bd       	out	0x27, r24	; 39
    117e:	ee e6       	ldi	r30, 0x6E	; 110
    1180:	f0 e0       	ldi	r31, 0x00	; 0
    1182:	80 81       	ld	r24, Z
    1184:	82 60       	ori	r24, 0x02	; 2
    1186:	80 83       	st	Z, r24
    1188:	81 e0       	ldi	r24, 0x01	; 1
    118a:	20 c0       	rjmp	.+64     	; 0x11cc <_ZN26Adafruit_VS1053_FilePlayer12useInterruptEh+0x60>
    118c:	65 30       	cpi	r22, 0x05	; 5
    118e:	d9 f4       	brne	.+54     	; 0x11c6 <_ZN26Adafruit_VS1053_FilePlayer12useInterruptEh+0x5a>
    1190:	fc 01       	movw	r30, r24
    1192:	80 a1       	ldd	r24, Z+32	; 0x20
    1194:	82 30       	cpi	r24, 0x02	; 2
    1196:	29 f0       	breq	.+10     	; 0x11a2 <_ZN26Adafruit_VS1053_FilePlayer12useInterruptEh+0x36>
    1198:	83 30       	cpi	r24, 0x03	; 3
    119a:	b9 f4       	brne	.+46     	; 0x11ca <_ZN26Adafruit_VS1053_FilePlayer12useInterruptEh+0x5e>
    119c:	82 e0       	ldi	r24, 0x02	; 2
    119e:	90 e0       	ldi	r25, 0x00	; 0
    11a0:	02 c0       	rjmp	.+4      	; 0x11a6 <_ZN26Adafruit_VS1053_FilePlayer12useInterruptEh+0x3a>
    11a2:	80 e0       	ldi	r24, 0x00	; 0
    11a4:	90 e0       	ldi	r25, 0x00	; 0
    11a6:	fc 01       	movw	r30, r24
    11a8:	ee 5d       	subi	r30, 0xDE	; 222
    11aa:	fe 4f       	sbci	r31, 0xFE	; 254
    11ac:	c0 81       	ld	r28, Z
    11ae:	8c 2f       	mov	r24, r28
    11b0:	0e 94 de 21 	call	0x43bc	; 0x43bc <_ZN8SPIClass14usingInterruptEh>
    11b4:	41 e0       	ldi	r20, 0x01	; 1
    11b6:	50 e0       	ldi	r21, 0x00	; 0
    11b8:	61 e8       	ldi	r22, 0x81	; 129
    11ba:	7a e0       	ldi	r23, 0x0A	; 10
    11bc:	8c 2f       	mov	r24, r28
    11be:	0e 94 85 06 	call	0xd0a	; 0xd0a <attachInterrupt>
    11c2:	81 e0       	ldi	r24, 0x01	; 1
    11c4:	03 c0       	rjmp	.+6      	; 0x11cc <_ZN26Adafruit_VS1053_FilePlayer12useInterruptEh+0x60>
    11c6:	80 e0       	ldi	r24, 0x00	; 0
    11c8:	01 c0       	rjmp	.+2      	; 0x11cc <_ZN26Adafruit_VS1053_FilePlayer12useInterruptEh+0x60>
    11ca:	80 e0       	ldi	r24, 0x00	; 0
    11cc:	cf 91       	pop	r28
    11ce:	08 95       	ret

000011d0 <_ZN26Adafruit_VS1053_FilePlayerC1Eaaaaa>:
    11d0:	0f 93       	push	r16
    11d2:	cf 93       	push	r28
    11d4:	df 93       	push	r29
    11d6:	ec 01       	movw	r28, r24
    11d8:	19 a2       	std	Y+33, r1	; 0x21
    11da:	1a a2       	std	Y+34, r1	; 0x22
    11dc:	1b a2       	std	Y+35, r1	; 0x23
    11de:	81 e0       	ldi	r24, 0x01	; 1
    11e0:	8f a3       	std	Y+39, r24	; 0x27
    11e2:	6c a3       	std	Y+36, r22	; 0x24
    11e4:	4d a3       	std	Y+37, r20	; 0x25
    11e6:	2e a3       	std	Y+38, r18	; 0x26
    11e8:	08 a3       	std	Y+32, r16	; 0x20
    11ea:	ce 01       	movw	r24, r28
    11ec:	88 96       	adiw	r24, 0x28	; 40
    11ee:	0e 94 61 0d 	call	0x1ac2	; 0x1ac2 <_ZN5SDLib4FileC1Ev>
    11f2:	ce 01       	movw	r24, r28
    11f4:	8d 5b       	subi	r24, 0xBD	; 189
    11f6:	9f 4f       	sbci	r25, 0xFF	; 255
    11f8:	0e 94 61 0d 	call	0x1ac2	; 0x1ac2 <_ZN5SDLib4FileC1Ev>
    11fc:	ce 01       	movw	r24, r28
    11fe:	81 5a       	subi	r24, 0xA1	; 161
    1200:	9f 4f       	sbci	r25, 0xFF	; 255
    1202:	0e 94 61 0d 	call	0x1ac2	; 0x1ac2 <_ZN5SDLib4FileC1Ev>
    1206:	fe 01       	movw	r30, r28
    1208:	e2 5a       	subi	r30, 0xA2	; 162
    120a:	ff 4f       	sbci	r31, 0xFF	; 255
    120c:	10 82       	st	Z, r1
    120e:	cc 57       	subi	r28, 0x7C	; 124
    1210:	df 4f       	sbci	r29, 0xFF	; 255
    1212:	61 e0       	ldi	r22, 0x01	; 1
    1214:	88 81       	ld	r24, Y
    1216:	0e 94 1d 08 	call	0x103a	; 0x103a <pinMode>
    121a:	61 e0       	ldi	r22, 0x01	; 1
    121c:	88 81       	ld	r24, Y
    121e:	0e 94 5b 08 	call	0x10b6	; 0x10b6 <digitalWrite>
    1222:	df 91       	pop	r29
    1224:	cf 91       	pop	r28
    1226:	0f 91       	pop	r16
    1228:	08 95       	ret

0000122a <_ZN15Adafruit_VS105312readyForDataEv>:
    122a:	fc 01       	movw	r30, r24
    122c:	80 a1       	ldd	r24, Z+32	; 0x20
    122e:	0e 94 8c 08 	call	0x1118	; 0x1118 <digitalRead>
    1232:	08 95       	ret

00001234 <_ZN15Adafruit_VS10537spireadEv>:
    1234:	1f 93       	push	r17
    1236:	cf 93       	push	r28
    1238:	df 93       	push	r29
    123a:	fc 01       	movw	r30, r24
    123c:	87 a1       	ldd	r24, Z+39	; 0x27
    123e:	88 23       	and	r24, r24
    1240:	39 f0       	breq	.+14     	; 0x1250 <_ZN15Adafruit_VS10537spireadEv+0x1c>
    1242:	1e bc       	out	0x2e, r1	; 46
    1244:	00 00       	nop
    1246:	0d b4       	in	r0, 0x2d	; 45
    1248:	07 fe       	sbrs	r0, 7
    124a:	fd cf       	rjmp	.-6      	; 0x1246 <_ZN15Adafruit_VS10537spireadEv+0x12>
    124c:	8e b5       	in	r24, 0x2e	; 46
    124e:	31 c0       	rjmp	.+98     	; 0x12b2 <_ZN15Adafruit_VS10537spireadEv+0x7e>
    1250:	a0 91 96 02 	lds	r26, 0x0296
    1254:	b0 91 97 02 	lds	r27, 0x0297
    1258:	10 91 92 02 	lds	r17, 0x0292
    125c:	e0 91 98 02 	lds	r30, 0x0298
    1260:	f0 91 99 02 	lds	r31, 0x0299
    1264:	c0 91 93 02 	lds	r28, 0x0293
    1268:	dc 2f       	mov	r29, r28
    126a:	d0 95       	com	r29
    126c:	27 e0       	ldi	r18, 0x07	; 7
    126e:	30 e0       	ldi	r19, 0x00	; 0
    1270:	80 e0       	ldi	r24, 0x00	; 0
    1272:	61 e0       	ldi	r22, 0x01	; 1
    1274:	70 e0       	ldi	r23, 0x00	; 0
    1276:	9c 91       	ld	r25, X
    1278:	91 23       	and	r25, r17
    127a:	41 f0       	breq	.+16     	; 0x128c <_ZN15Adafruit_VS10537spireadEv+0x58>
    127c:	ab 01       	movw	r20, r22
    127e:	02 2e       	mov	r0, r18
    1280:	02 c0       	rjmp	.+4      	; 0x1286 <_ZN15Adafruit_VS10537spireadEv+0x52>
    1282:	44 0f       	add	r20, r20
    1284:	55 1f       	adc	r21, r21
    1286:	0a 94       	dec	r0
    1288:	e2 f7       	brpl	.-8      	; 0x1282 <_ZN15Adafruit_VS10537spireadEv+0x4e>
    128a:	84 2b       	or	r24, r20
    128c:	90 81       	ld	r25, Z
    128e:	9c 2b       	or	r25, r28
    1290:	90 83       	st	Z, r25
    1292:	90 81       	ld	r25, Z
    1294:	9d 23       	and	r25, r29
    1296:	90 83       	st	Z, r25
    1298:	21 50       	subi	r18, 0x01	; 1
    129a:	31 09       	sbc	r19, r1
    129c:	60 f7       	brcc	.-40     	; 0x1276 <_ZN15Adafruit_VS10537spireadEv+0x42>
    129e:	e0 91 98 02 	lds	r30, 0x0298
    12a2:	f0 91 99 02 	lds	r31, 0x0299
    12a6:	20 81       	ld	r18, Z
    12a8:	90 91 93 02 	lds	r25, 0x0293
    12ac:	90 95       	com	r25
    12ae:	92 23       	and	r25, r18
    12b0:	90 83       	st	Z, r25
    12b2:	df 91       	pop	r29
    12b4:	cf 91       	pop	r28
    12b6:	1f 91       	pop	r17
    12b8:	08 95       	ret

000012ba <_ZN15Adafruit_VS10538spiwriteEh>:
    12ba:	cf 93       	push	r28
    12bc:	df 93       	push	r29
    12be:	fc 01       	movw	r30, r24
    12c0:	87 a1       	ldd	r24, Z+39	; 0x27
    12c2:	88 23       	and	r24, r24
    12c4:	39 f0       	breq	.+14     	; 0x12d4 <_ZN15Adafruit_VS10538spiwriteEh+0x1a>
    12c6:	6e bd       	out	0x2e, r22	; 46
    12c8:	00 00       	nop
    12ca:	0d b4       	in	r0, 0x2d	; 45
    12cc:	07 fe       	sbrs	r0, 7
    12ce:	fd cf       	rjmp	.-6      	; 0x12ca <_ZN15Adafruit_VS10538spiwriteEh+0x10>
    12d0:	8e b5       	in	r24, 0x2e	; 46
    12d2:	35 c0       	rjmp	.+106    	; 0x133e <_ZN15Adafruit_VS10538spiwriteEh+0x84>
    12d4:	e0 91 98 02 	lds	r30, 0x0298
    12d8:	f0 91 99 02 	lds	r31, 0x0299
    12dc:	40 91 93 02 	lds	r20, 0x0293
    12e0:	54 2f       	mov	r21, r20
    12e2:	50 95       	com	r21
    12e4:	a0 91 94 02 	lds	r26, 0x0294
    12e8:	b0 91 95 02 	lds	r27, 0x0295
    12ec:	c0 91 91 02 	lds	r28, 0x0291
    12f0:	dc 2f       	mov	r29, r28
    12f2:	d0 95       	com	r29
    12f4:	87 e0       	ldi	r24, 0x07	; 7
    12f6:	90 e0       	ldi	r25, 0x00	; 0
    12f8:	70 e0       	ldi	r23, 0x00	; 0
    12fa:	20 81       	ld	r18, Z
    12fc:	25 23       	and	r18, r21
    12fe:	20 83       	st	Z, r18
    1300:	9b 01       	movw	r18, r22
    1302:	08 2e       	mov	r0, r24
    1304:	02 c0       	rjmp	.+4      	; 0x130a <_ZN15Adafruit_VS10538spiwriteEh+0x50>
    1306:	35 95       	asr	r19
    1308:	27 95       	ror	r18
    130a:	0a 94       	dec	r0
    130c:	e2 f7       	brpl	.-8      	; 0x1306 <_ZN15Adafruit_VS10538spiwriteEh+0x4c>
    130e:	20 ff       	sbrs	r18, 0
    1310:	04 c0       	rjmp	.+8      	; 0x131a <_ZN15Adafruit_VS10538spiwriteEh+0x60>
    1312:	2c 91       	ld	r18, X
    1314:	2c 2b       	or	r18, r28
    1316:	2c 93       	st	X, r18
    1318:	03 c0       	rjmp	.+6      	; 0x1320 <_ZN15Adafruit_VS10538spiwriteEh+0x66>
    131a:	2c 91       	ld	r18, X
    131c:	2d 23       	and	r18, r29
    131e:	2c 93       	st	X, r18
    1320:	20 81       	ld	r18, Z
    1322:	24 2b       	or	r18, r20
    1324:	20 83       	st	Z, r18
    1326:	01 97       	sbiw	r24, 0x01	; 1
    1328:	40 f7       	brcc	.-48     	; 0x12fa <_ZN15Adafruit_VS10538spiwriteEh+0x40>
    132a:	e0 91 98 02 	lds	r30, 0x0298
    132e:	f0 91 99 02 	lds	r31, 0x0299
    1332:	90 81       	ld	r25, Z
    1334:	80 91 93 02 	lds	r24, 0x0293
    1338:	80 95       	com	r24
    133a:	89 23       	and	r24, r25
    133c:	80 83       	st	Z, r24
    133e:	df 91       	pop	r29
    1340:	cf 91       	pop	r28
    1342:	08 95       	ret

00001344 <_ZN15Adafruit_VS10538playDataEPhh>:
    1344:	df 92       	push	r13
    1346:	ef 92       	push	r14
    1348:	ff 92       	push	r15
    134a:	0f 93       	push	r16
    134c:	1f 93       	push	r17
    134e:	cf 93       	push	r28
    1350:	df 93       	push	r29
    1352:	8c 01       	movw	r16, r24
    1354:	d6 2e       	mov	r13, r22
    1356:	f7 2e       	mov	r15, r23
    1358:	e4 2e       	mov	r14, r20
    135a:	fc 01       	movw	r30, r24
    135c:	87 a1       	ldd	r24, Z+39	; 0x27
    135e:	88 23       	and	r24, r24
    1360:	d9 f0       	breq	.+54     	; 0x1398 <_ZN15Adafruit_VS10538playDataEPhh+0x54>
    1362:	80 91 f3 04 	lds	r24, 0x04F3
    1366:	88 23       	and	r24, r24
    1368:	99 f0       	breq	.+38     	; 0x1390 <_ZN15Adafruit_VS10538playDataEPhh+0x4c>
    136a:	8f b7       	in	r24, 0x3f	; 63
    136c:	f8 94       	cli
    136e:	90 91 f3 04 	lds	r25, 0x04F3
    1372:	91 30       	cpi	r25, 0x01	; 1
    1374:	59 f4       	brne	.+22     	; 0x138c <_ZN15Adafruit_VS10538playDataEPhh+0x48>
    1376:	9d b3       	in	r25, 0x1d	; 29
    1378:	90 93 f1 04 	sts	0x04F1, r25
    137c:	2d b3       	in	r18, 0x1d	; 29
    137e:	90 91 f2 04 	lds	r25, 0x04F2
    1382:	90 95       	com	r25
    1384:	92 23       	and	r25, r18
    1386:	9d bb       	out	0x1d, r25	; 29
    1388:	8f bf       	out	0x3f, r24	; 63
    138a:	02 c0       	rjmp	.+4      	; 0x1390 <_ZN15Adafruit_VS10538playDataEPhh+0x4c>
    138c:	80 93 f1 04 	sts	0x04F1, r24
    1390:	80 e5       	ldi	r24, 0x50	; 80
    1392:	8c bd       	out	0x2c, r24	; 44
    1394:	81 e0       	ldi	r24, 0x01	; 1
    1396:	8d bd       	out	0x2d, r24	; 45
    1398:	60 e0       	ldi	r22, 0x00	; 0
    139a:	f8 01       	movw	r30, r16
    139c:	86 a1       	ldd	r24, Z+38	; 0x26
    139e:	0e 94 5b 08 	call	0x10b6	; 0x10b6 <digitalWrite>
    13a2:	ee 20       	and	r14, r14
    13a4:	51 f0       	breq	.+20     	; 0x13ba <_ZN15Adafruit_VS10538playDataEPhh+0x76>
    13a6:	cd 2d       	mov	r28, r13
    13a8:	df 2d       	mov	r29, r15
    13aa:	f1 2c       	mov	r15, r1
    13ac:	69 91       	ld	r22, Y+
    13ae:	c8 01       	movw	r24, r16
    13b0:	0e 94 5d 09 	call	0x12ba	; 0x12ba <_ZN15Adafruit_VS10538spiwriteEh>
    13b4:	f3 94       	inc	r15
    13b6:	fe 10       	cpse	r15, r14
    13b8:	f9 cf       	rjmp	.-14     	; 0x13ac <_ZN15Adafruit_VS10538playDataEPhh+0x68>
    13ba:	61 e0       	ldi	r22, 0x01	; 1
    13bc:	f8 01       	movw	r30, r16
    13be:	86 a1       	ldd	r24, Z+38	; 0x26
    13c0:	0e 94 5b 08 	call	0x10b6	; 0x10b6 <digitalWrite>
    13c4:	f8 01       	movw	r30, r16
    13c6:	87 a1       	ldd	r24, Z+39	; 0x27
    13c8:	88 23       	and	r24, r24
    13ca:	91 f0       	breq	.+36     	; 0x13f0 <_ZN15Adafruit_VS10538playDataEPhh+0xac>
    13cc:	80 91 f3 04 	lds	r24, 0x04F3
    13d0:	88 23       	and	r24, r24
    13d2:	71 f0       	breq	.+28     	; 0x13f0 <_ZN15Adafruit_VS10538playDataEPhh+0xac>
    13d4:	9f b7       	in	r25, 0x3f	; 63
    13d6:	f8 94       	cli
    13d8:	80 91 f3 04 	lds	r24, 0x04F3
    13dc:	81 30       	cpi	r24, 0x01	; 1
    13de:	29 f4       	brne	.+10     	; 0x13ea <_ZN15Adafruit_VS10538playDataEPhh+0xa6>
    13e0:	80 91 f1 04 	lds	r24, 0x04F1
    13e4:	8d bb       	out	0x1d, r24	; 29
    13e6:	9f bf       	out	0x3f, r25	; 63
    13e8:	03 c0       	rjmp	.+6      	; 0x13f0 <_ZN15Adafruit_VS10538playDataEPhh+0xac>
    13ea:	80 91 f1 04 	lds	r24, 0x04F1
    13ee:	8f bf       	out	0x3f, r24	; 63
    13f0:	df 91       	pop	r29
    13f2:	cf 91       	pop	r28
    13f4:	1f 91       	pop	r17
    13f6:	0f 91       	pop	r16
    13f8:	ff 90       	pop	r15
    13fa:	ef 90       	pop	r14
    13fc:	df 90       	pop	r13
    13fe:	08 95       	ret

00001400 <_ZN26Adafruit_VS1053_FilePlayer10feedBufferEv>:
    1400:	ef 92       	push	r14
    1402:	ff 92       	push	r15
    1404:	0f 93       	push	r16
    1406:	1f 93       	push	r17
    1408:	cf 93       	push	r28
    140a:	df 93       	push	r29
    140c:	ec 01       	movw	r28, r24
    140e:	8f b7       	in	r24, 0x3f	; 63
    1410:	f8 94       	cli
    1412:	90 91 90 02 	lds	r25, 0x0290
    1416:	99 23       	and	r25, r25
    1418:	11 f0       	breq	.+4      	; 0x141e <_ZN26Adafruit_VS1053_FilePlayer10feedBufferEv+0x1e>
    141a:	8f bf       	out	0x3f, r24	; 63
    141c:	43 c0       	rjmp	.+134    	; 0x14a4 <_ZN26Adafruit_VS1053_FilePlayer10feedBufferEv+0xa4>
    141e:	91 e0       	ldi	r25, 0x01	; 1
    1420:	90 93 90 02 	sts	0x0290, r25
    1424:	8f bf       	out	0x3f, r24	; 63
    1426:	fe 01       	movw	r30, r28
    1428:	e2 5a       	subi	r30, 0xA2	; 162
    142a:	ff 4f       	sbci	r31, 0xFF	; 255
    142c:	80 81       	ld	r24, Z
    142e:	81 11       	cpse	r24, r1
    1430:	03 c0       	rjmp	.+6      	; 0x1438 <_ZN26Adafruit_VS1053_FilePlayer10feedBufferEv+0x38>
    1432:	10 92 90 02 	sts	0x0290, r1
    1436:	36 c0       	rjmp	.+108    	; 0x14a4 <_ZN26Adafruit_VS1053_FilePlayer10feedBufferEv+0xa4>
    1438:	8e 01       	movw	r16, r28
    143a:	08 5d       	subi	r16, 0xD8	; 216
    143c:	1f 4f       	sbci	r17, 0xFF	; 255
    143e:	c8 01       	movw	r24, r16
    1440:	0e 94 e0 0d 	call	0x1bc0	; 0x1bc0 <_ZN5SDLib4FilecvbEv>
    1444:	81 11       	cpse	r24, r1
    1446:	03 c0       	rjmp	.+6      	; 0x144e <_ZN26Adafruit_VS1053_FilePlayer10feedBufferEv+0x4e>
    1448:	10 92 90 02 	sts	0x0290, r1
    144c:	2b c0       	rjmp	.+86     	; 0x14a4 <_ZN26Adafruit_VS1053_FilePlayer10feedBufferEv+0xa4>
    144e:	ec 2e       	mov	r14, r28
    1450:	fd 2e       	mov	r15, r29
    1452:	ce 01       	movw	r24, r28
    1454:	0e 94 15 09 	call	0x122a	; 0x122a <_ZN15Adafruit_VS105312readyForDataEv>
    1458:	81 11       	cpse	r24, r1
    145a:	1c c0       	rjmp	.+56     	; 0x1494 <_ZN26Adafruit_VS1053_FilePlayer10feedBufferEv+0x94>
    145c:	10 92 90 02 	sts	0x0290, r1
    1460:	21 c0       	rjmp	.+66     	; 0x14a4 <_ZN26Adafruit_VS1053_FilePlayer10feedBufferEv+0xa4>
    1462:	40 e2       	ldi	r20, 0x20	; 32
    1464:	50 e0       	ldi	r21, 0x00	; 0
    1466:	6e 2d       	mov	r22, r14
    1468:	7f 2d       	mov	r23, r15
    146a:	c8 01       	movw	r24, r16
    146c:	0e 94 74 0d 	call	0x1ae8	; 0x1ae8 <_ZN5SDLib4File4readEPvj>
    1470:	00 97       	sbiw	r24, 0x00	; 0
    1472:	49 f4       	brne	.+18     	; 0x1486 <_ZN26Adafruit_VS1053_FilePlayer10feedBufferEv+0x86>
    1474:	c2 5a       	subi	r28, 0xA2	; 162
    1476:	df 4f       	sbci	r29, 0xFF	; 255
    1478:	18 82       	st	Y, r1
    147a:	c8 01       	movw	r24, r16
    147c:	0e 94 ce 0d 	call	0x1b9c	; 0x1b9c <_ZN5SDLib4File5closeEv>
    1480:	10 92 90 02 	sts	0x0290, r1
    1484:	0f c0       	rjmp	.+30     	; 0x14a4 <_ZN26Adafruit_VS1053_FilePlayer10feedBufferEv+0xa4>
    1486:	48 2f       	mov	r20, r24
    1488:	6e 2d       	mov	r22, r14
    148a:	7f 2d       	mov	r23, r15
    148c:	8e 2d       	mov	r24, r14
    148e:	9f 2d       	mov	r25, r15
    1490:	0e 94 a2 09 	call	0x1344	; 0x1344 <_ZN15Adafruit_VS10538playDataEPhh>
    1494:	8e 2d       	mov	r24, r14
    1496:	9f 2d       	mov	r25, r15
    1498:	0e 94 15 09 	call	0x122a	; 0x122a <_ZN15Adafruit_VS105312readyForDataEv>
    149c:	81 11       	cpse	r24, r1
    149e:	e1 cf       	rjmp	.-62     	; 0x1462 <_ZN26Adafruit_VS1053_FilePlayer10feedBufferEv+0x62>
    14a0:	10 92 90 02 	sts	0x0290, r1
    14a4:	df 91       	pop	r29
    14a6:	cf 91       	pop	r28
    14a8:	1f 91       	pop	r17
    14aa:	0f 91       	pop	r16
    14ac:	ff 90       	pop	r15
    14ae:	ef 90       	pop	r14
    14b0:	08 95       	ret

000014b2 <__vector_14>:
    14b2:	1f 92       	push	r1
    14b4:	0f 92       	push	r0
    14b6:	0f b6       	in	r0, 0x3f	; 63
    14b8:	0f 92       	push	r0
    14ba:	11 24       	eor	r1, r1
    14bc:	2f 93       	push	r18
    14be:	3f 93       	push	r19
    14c0:	4f 93       	push	r20
    14c2:	5f 93       	push	r21
    14c4:	6f 93       	push	r22
    14c6:	7f 93       	push	r23
    14c8:	8f 93       	push	r24
    14ca:	9f 93       	push	r25
    14cc:	af 93       	push	r26
    14ce:	bf 93       	push	r27
    14d0:	ef 93       	push	r30
    14d2:	ff 93       	push	r31
    14d4:	80 91 9a 02 	lds	r24, 0x029A
    14d8:	90 91 9b 02 	lds	r25, 0x029B
    14dc:	0e 94 00 0a 	call	0x1400	; 0x1400 <_ZN26Adafruit_VS1053_FilePlayer10feedBufferEv>
    14e0:	ff 91       	pop	r31
    14e2:	ef 91       	pop	r30
    14e4:	bf 91       	pop	r27
    14e6:	af 91       	pop	r26
    14e8:	9f 91       	pop	r25
    14ea:	8f 91       	pop	r24
    14ec:	7f 91       	pop	r23
    14ee:	6f 91       	pop	r22
    14f0:	5f 91       	pop	r21
    14f2:	4f 91       	pop	r20
    14f4:	3f 91       	pop	r19
    14f6:	2f 91       	pop	r18
    14f8:	0f 90       	pop	r0
    14fa:	0f be       	out	0x3f, r0	; 63
    14fc:	0f 90       	pop	r0
    14fe:	1f 90       	pop	r1
    1500:	18 95       	reti

00001502 <_ZL6feederv>:
    1502:	80 91 9a 02 	lds	r24, 0x029A
    1506:	90 91 9b 02 	lds	r25, 0x029B
    150a:	0e 94 00 0a 	call	0x1400	; 0x1400 <_ZN26Adafruit_VS1053_FilePlayer10feedBufferEv>
    150e:	08 95       	ret

00001510 <_ZN15Adafruit_VS10537sciReadEh>:
    1510:	0f 93       	push	r16
    1512:	1f 93       	push	r17
    1514:	cf 93       	push	r28
    1516:	df 93       	push	r29
    1518:	ec 01       	movw	r28, r24
    151a:	16 2f       	mov	r17, r22
    151c:	8f a1       	ldd	r24, Y+39	; 0x27
    151e:	88 23       	and	r24, r24
    1520:	d1 f0       	breq	.+52     	; 0x1556 <_ZN15Adafruit_VS10537sciReadEh+0x46>
    1522:	80 91 f3 04 	lds	r24, 0x04F3
    1526:	88 23       	and	r24, r24
    1528:	99 f0       	breq	.+38     	; 0x1550 <_ZN15Adafruit_VS10537sciReadEh+0x40>
    152a:	8f b7       	in	r24, 0x3f	; 63
    152c:	f8 94       	cli
    152e:	90 91 f3 04 	lds	r25, 0x04F3
    1532:	91 30       	cpi	r25, 0x01	; 1
    1534:	59 f4       	brne	.+22     	; 0x154c <_ZN15Adafruit_VS10537sciReadEh+0x3c>
    1536:	9d b3       	in	r25, 0x1d	; 29
    1538:	90 93 f1 04 	sts	0x04F1, r25
    153c:	2d b3       	in	r18, 0x1d	; 29
    153e:	90 91 f2 04 	lds	r25, 0x04F2
    1542:	90 95       	com	r25
    1544:	92 23       	and	r25, r18
    1546:	9d bb       	out	0x1d, r25	; 29
    1548:	8f bf       	out	0x3f, r24	; 63
    154a:	02 c0       	rjmp	.+4      	; 0x1550 <_ZN15Adafruit_VS10537sciReadEh+0x40>
    154c:	80 93 f1 04 	sts	0x04F1, r24
    1550:	82 e5       	ldi	r24, 0x52	; 82
    1552:	8c bd       	out	0x2c, r24	; 44
    1554:	1d bc       	out	0x2d, r1	; 45
    1556:	60 e0       	ldi	r22, 0x00	; 0
    1558:	8d a1       	ldd	r24, Y+37	; 0x25
    155a:	0e 94 5b 08 	call	0x10b6	; 0x10b6 <digitalWrite>
    155e:	63 e0       	ldi	r22, 0x03	; 3
    1560:	ce 01       	movw	r24, r28
    1562:	0e 94 5d 09 	call	0x12ba	; 0x12ba <_ZN15Adafruit_VS10538spiwriteEh>
    1566:	61 2f       	mov	r22, r17
    1568:	ce 01       	movw	r24, r28
    156a:	0e 94 5d 09 	call	0x12ba	; 0x12ba <_ZN15Adafruit_VS10538spiwriteEh>
    156e:	8a e0       	ldi	r24, 0x0A	; 10
    1570:	90 e0       	ldi	r25, 0x00	; 0
    1572:	0e 94 a8 07 	call	0xf50	; 0xf50 <delayMicroseconds>
    1576:	ce 01       	movw	r24, r28
    1578:	0e 94 1a 09 	call	0x1234	; 0x1234 <_ZN15Adafruit_VS10537spireadEv>
    157c:	08 2f       	mov	r16, r24
    157e:	10 e0       	ldi	r17, 0x00	; 0
    1580:	10 2f       	mov	r17, r16
    1582:	00 27       	eor	r16, r16
    1584:	ce 01       	movw	r24, r28
    1586:	0e 94 1a 09 	call	0x1234	; 0x1234 <_ZN15Adafruit_VS10537spireadEv>
    158a:	08 2b       	or	r16, r24
    158c:	61 e0       	ldi	r22, 0x01	; 1
    158e:	8d a1       	ldd	r24, Y+37	; 0x25
    1590:	0e 94 5b 08 	call	0x10b6	; 0x10b6 <digitalWrite>
    1594:	8f a1       	ldd	r24, Y+39	; 0x27
    1596:	88 23       	and	r24, r24
    1598:	91 f0       	breq	.+36     	; 0x15be <_ZN15Adafruit_VS10537sciReadEh+0xae>
    159a:	80 91 f3 04 	lds	r24, 0x04F3
    159e:	88 23       	and	r24, r24
    15a0:	71 f0       	breq	.+28     	; 0x15be <_ZN15Adafruit_VS10537sciReadEh+0xae>
    15a2:	9f b7       	in	r25, 0x3f	; 63
    15a4:	f8 94       	cli
    15a6:	80 91 f3 04 	lds	r24, 0x04F3
    15aa:	81 30       	cpi	r24, 0x01	; 1
    15ac:	29 f4       	brne	.+10     	; 0x15b8 <_ZN15Adafruit_VS10537sciReadEh+0xa8>
    15ae:	80 91 f1 04 	lds	r24, 0x04F1
    15b2:	8d bb       	out	0x1d, r24	; 29
    15b4:	9f bf       	out	0x3f, r25	; 63
    15b6:	03 c0       	rjmp	.+6      	; 0x15be <_ZN15Adafruit_VS10537sciReadEh+0xae>
    15b8:	80 91 f1 04 	lds	r24, 0x04F1
    15bc:	8f bf       	out	0x3f, r24	; 63
    15be:	c8 01       	movw	r24, r16
    15c0:	df 91       	pop	r29
    15c2:	cf 91       	pop	r28
    15c4:	1f 91       	pop	r17
    15c6:	0f 91       	pop	r16
    15c8:	08 95       	ret

000015ca <_ZN15Adafruit_VS10538sciWriteEhj>:
    15ca:	ff 92       	push	r15
    15cc:	0f 93       	push	r16
    15ce:	1f 93       	push	r17
    15d0:	cf 93       	push	r28
    15d2:	df 93       	push	r29
    15d4:	ec 01       	movw	r28, r24
    15d6:	f6 2e       	mov	r15, r22
    15d8:	14 2f       	mov	r17, r20
    15da:	05 2f       	mov	r16, r21
    15dc:	8f a1       	ldd	r24, Y+39	; 0x27
    15de:	88 23       	and	r24, r24
    15e0:	d1 f0       	breq	.+52     	; 0x1616 <_ZN15Adafruit_VS10538sciWriteEhj+0x4c>
    15e2:	80 91 f3 04 	lds	r24, 0x04F3
    15e6:	88 23       	and	r24, r24
    15e8:	99 f0       	breq	.+38     	; 0x1610 <_ZN15Adafruit_VS10538sciWriteEhj+0x46>
    15ea:	8f b7       	in	r24, 0x3f	; 63
    15ec:	f8 94       	cli
    15ee:	90 91 f3 04 	lds	r25, 0x04F3
    15f2:	91 30       	cpi	r25, 0x01	; 1
    15f4:	59 f4       	brne	.+22     	; 0x160c <_ZN15Adafruit_VS10538sciWriteEhj+0x42>
    15f6:	9d b3       	in	r25, 0x1d	; 29
    15f8:	90 93 f1 04 	sts	0x04F1, r25
    15fc:	2d b3       	in	r18, 0x1d	; 29
    15fe:	90 91 f2 04 	lds	r25, 0x04F2
    1602:	90 95       	com	r25
    1604:	92 23       	and	r25, r18
    1606:	9d bb       	out	0x1d, r25	; 29
    1608:	8f bf       	out	0x3f, r24	; 63
    160a:	02 c0       	rjmp	.+4      	; 0x1610 <_ZN15Adafruit_VS10538sciWriteEhj+0x46>
    160c:	80 93 f1 04 	sts	0x04F1, r24
    1610:	82 e5       	ldi	r24, 0x52	; 82
    1612:	8c bd       	out	0x2c, r24	; 44
    1614:	1d bc       	out	0x2d, r1	; 45
    1616:	60 e0       	ldi	r22, 0x00	; 0
    1618:	8d a1       	ldd	r24, Y+37	; 0x25
    161a:	0e 94 5b 08 	call	0x10b6	; 0x10b6 <digitalWrite>
    161e:	62 e0       	ldi	r22, 0x02	; 2
    1620:	ce 01       	movw	r24, r28
    1622:	0e 94 5d 09 	call	0x12ba	; 0x12ba <_ZN15Adafruit_VS10538spiwriteEh>
    1626:	6f 2d       	mov	r22, r15
    1628:	ce 01       	movw	r24, r28
    162a:	0e 94 5d 09 	call	0x12ba	; 0x12ba <_ZN15Adafruit_VS10538spiwriteEh>
    162e:	60 2f       	mov	r22, r16
    1630:	ce 01       	movw	r24, r28
    1632:	0e 94 5d 09 	call	0x12ba	; 0x12ba <_ZN15Adafruit_VS10538spiwriteEh>
    1636:	61 2f       	mov	r22, r17
    1638:	ce 01       	movw	r24, r28
    163a:	0e 94 5d 09 	call	0x12ba	; 0x12ba <_ZN15Adafruit_VS10538spiwriteEh>
    163e:	61 e0       	ldi	r22, 0x01	; 1
    1640:	8d a1       	ldd	r24, Y+37	; 0x25
    1642:	0e 94 5b 08 	call	0x10b6	; 0x10b6 <digitalWrite>
    1646:	8f a1       	ldd	r24, Y+39	; 0x27
    1648:	88 23       	and	r24, r24
    164a:	91 f0       	breq	.+36     	; 0x1670 <_ZN15Adafruit_VS10538sciWriteEhj+0xa6>
    164c:	80 91 f3 04 	lds	r24, 0x04F3
    1650:	88 23       	and	r24, r24
    1652:	71 f0       	breq	.+28     	; 0x1670 <_ZN15Adafruit_VS10538sciWriteEhj+0xa6>
    1654:	9f b7       	in	r25, 0x3f	; 63
    1656:	f8 94       	cli
    1658:	80 91 f3 04 	lds	r24, 0x04F3
    165c:	81 30       	cpi	r24, 0x01	; 1
    165e:	29 f4       	brne	.+10     	; 0x166a <_ZN15Adafruit_VS10538sciWriteEhj+0xa0>
    1660:	80 91 f1 04 	lds	r24, 0x04F1
    1664:	8d bb       	out	0x1d, r24	; 29
    1666:	9f bf       	out	0x3f, r25	; 63
    1668:	03 c0       	rjmp	.+6      	; 0x1670 <_ZN15Adafruit_VS10538sciWriteEhj+0xa6>
    166a:	80 91 f1 04 	lds	r24, 0x04F1
    166e:	8f bf       	out	0x3f, r24	; 63
    1670:	df 91       	pop	r29
    1672:	cf 91       	pop	r28
    1674:	1f 91       	pop	r17
    1676:	0f 91       	pop	r16
    1678:	ff 90       	pop	r15
    167a:	08 95       	ret

0000167c <_ZN26Adafruit_VS1053_FilePlayer11stopPlayingEv>:
    167c:	cf 93       	push	r28
    167e:	df 93       	push	r29
    1680:	ec 01       	movw	r28, r24
    1682:	48 e0       	ldi	r20, 0x08	; 8
    1684:	58 e4       	ldi	r21, 0x48	; 72
    1686:	60 e0       	ldi	r22, 0x00	; 0
    1688:	0e 94 e5 0a 	call	0x15ca	; 0x15ca <_ZN15Adafruit_VS10538sciWriteEhj>
    168c:	fe 01       	movw	r30, r28
    168e:	e2 5a       	subi	r30, 0xA2	; 162
    1690:	ff 4f       	sbci	r31, 0xFF	; 255
    1692:	10 82       	st	Z, r1
    1694:	ce 01       	movw	r24, r28
    1696:	88 96       	adiw	r24, 0x28	; 40
    1698:	0e 94 ce 0d 	call	0x1b9c	; 0x1b9c <_ZN5SDLib4File5closeEv>
    169c:	df 91       	pop	r29
    169e:	cf 91       	pop	r28
    16a0:	08 95       	ret

000016a2 <_ZN26Adafruit_VS1053_FilePlayer16startPlayingFileEPKc>:
    16a2:	cf 92       	push	r12
    16a4:	df 92       	push	r13
    16a6:	ef 92       	push	r14
    16a8:	ff 92       	push	r15
    16aa:	0f 93       	push	r16
    16ac:	1f 93       	push	r17
    16ae:	cf 93       	push	r28
    16b0:	df 93       	push	r29
    16b2:	cd b7       	in	r28, 0x3d	; 61
    16b4:	de b7       	in	r29, 0x3e	; 62
    16b6:	6b 97       	sbiw	r28, 0x1b	; 27
    16b8:	0f b6       	in	r0, 0x3f	; 63
    16ba:	f8 94       	cli
    16bc:	de bf       	out	0x3e, r29	; 62
    16be:	0f be       	out	0x3f, r0	; 63
    16c0:	cd bf       	out	0x3d, r28	; 61
    16c2:	8c 01       	movw	r16, r24
    16c4:	7b 01       	movw	r14, r22
    16c6:	d8 2e       	mov	r13, r24
    16c8:	c1 2e       	mov	r12, r17
    16ca:	40 e0       	ldi	r20, 0x00	; 0
    16cc:	58 e4       	ldi	r21, 0x48	; 72
    16ce:	60 e0       	ldi	r22, 0x00	; 0
    16d0:	0e 94 e5 0a 	call	0x15ca	; 0x15ca <_ZN15Adafruit_VS10538sciWriteEhj>
    16d4:	49 e2       	ldi	r20, 0x29	; 41
    16d6:	5e e1       	ldi	r21, 0x1E	; 30
    16d8:	67 e0       	ldi	r22, 0x07	; 7
    16da:	c8 01       	movw	r24, r16
    16dc:	0e 94 e5 0a 	call	0x15ca	; 0x15ca <_ZN15Adafruit_VS10538sciWriteEhj>
    16e0:	40 e0       	ldi	r20, 0x00	; 0
    16e2:	50 e0       	ldi	r21, 0x00	; 0
    16e4:	66 e0       	ldi	r22, 0x06	; 6
    16e6:	c8 01       	movw	r24, r16
    16e8:	0e 94 e5 0a 	call	0x15ca	; 0x15ca <_ZN15Adafruit_VS10538sciWriteEhj>
    16ec:	21 e0       	ldi	r18, 0x01	; 1
    16ee:	a7 01       	movw	r20, r14
    16f0:	6c e9       	ldi	r22, 0x9C	; 156
    16f2:	72 e0       	ldi	r23, 0x02	; 2
    16f4:	ce 01       	movw	r24, r28
    16f6:	01 96       	adiw	r24, 0x01	; 1
    16f8:	0e 94 40 0f 	call	0x1e80	; 0x1e80 <_ZN5SDLib7SDClass4openEPKch>
    16fc:	8b 81       	ldd	r24, Y+3	; 0x03
    16fe:	9c 81       	ldd	r25, Y+4	; 0x04
    1700:	f8 01       	movw	r30, r16
    1702:	93 a7       	std	Z+43, r25	; 0x2b
    1704:	82 a7       	std	Z+42, r24	; 0x2a
    1706:	4d 81       	ldd	r20, Y+5	; 0x05
    1708:	5e 81       	ldd	r21, Y+6	; 0x06
    170a:	6f 81       	ldd	r22, Y+7	; 0x07
    170c:	78 85       	ldd	r23, Y+8	; 0x08
    170e:	44 a7       	std	Z+44, r20	; 0x2c
    1710:	55 a7       	std	Z+45, r21	; 0x2d
    1712:	66 a7       	std	Z+46, r22	; 0x2e
    1714:	77 a7       	std	Z+47, r23	; 0x2f
    1716:	49 85       	ldd	r20, Y+9	; 0x09
    1718:	5a 85       	ldd	r21, Y+10	; 0x0a
    171a:	6b 85       	ldd	r22, Y+11	; 0x0b
    171c:	7c 85       	ldd	r23, Y+12	; 0x0c
    171e:	40 ab       	std	Z+48, r20	; 0x30
    1720:	51 ab       	std	Z+49, r21	; 0x31
    1722:	62 ab       	std	Z+50, r22	; 0x32
    1724:	73 ab       	std	Z+51, r23	; 0x33
    1726:	8d e0       	ldi	r24, 0x0D	; 13
    1728:	fe 01       	movw	r30, r28
    172a:	3d 96       	adiw	r30, 0x0d	; 13
    172c:	d8 01       	movw	r26, r16
    172e:	d4 96       	adiw	r26, 0x34	; 52
    1730:	01 90       	ld	r0, Z+
    1732:	0d 92       	st	X+, r0
    1734:	8a 95       	dec	r24
    1736:	e1 f7       	brne	.-8      	; 0x1730 <_ZN26Adafruit_VS1053_FilePlayer16startPlayingFileEPKc+0x8e>
    1738:	f8 01       	movw	r30, r16
    173a:	ef 5b       	subi	r30, 0xBF	; 191
    173c:	ff 4f       	sbci	r31, 0xFF	; 255
    173e:	8a 8d       	ldd	r24, Y+26	; 0x1a
    1740:	9b 8d       	ldd	r25, Y+27	; 0x1b
    1742:	91 83       	std	Z+1, r25	; 0x01
    1744:	80 83       	st	Z, r24
    1746:	c8 01       	movw	r24, r16
    1748:	88 96       	adiw	r24, 0x28	; 40
    174a:	0e 94 e0 0d 	call	0x1bc0	; 0x1bc0 <_ZN5SDLib4FilecvbEv>
    174e:	88 23       	and	r24, r24
    1750:	59 f1       	breq	.+86     	; 0x17a8 <_ZN26Adafruit_VS1053_FilePlayer16startPlayingFileEPKc+0x106>
    1752:	40 e0       	ldi	r20, 0x00	; 0
    1754:	50 e0       	ldi	r21, 0x00	; 0
    1756:	64 e0       	ldi	r22, 0x04	; 4
    1758:	c8 01       	movw	r24, r16
    175a:	0e 94 e5 0a 	call	0x15ca	; 0x15ca <_ZN15Adafruit_VS10538sciWriteEhj>
    175e:	40 e0       	ldi	r20, 0x00	; 0
    1760:	50 e0       	ldi	r21, 0x00	; 0
    1762:	64 e0       	ldi	r22, 0x04	; 4
    1764:	c8 01       	movw	r24, r16
    1766:	0e 94 e5 0a 	call	0x15ca	; 0x15ca <_ZN15Adafruit_VS10538sciWriteEhj>
    176a:	81 e0       	ldi	r24, 0x01	; 1
    176c:	f8 01       	movw	r30, r16
    176e:	e2 5a       	subi	r30, 0xA2	; 162
    1770:	ff 4f       	sbci	r31, 0xFF	; 255
    1772:	80 83       	st	Z, r24
    1774:	8d 2d       	mov	r24, r13
    1776:	9c 2d       	mov	r25, r12
    1778:	0e 94 15 09 	call	0x122a	; 0x122a <_ZN15Adafruit_VS105312readyForDataEv>
    177c:	88 23       	and	r24, r24
    177e:	d1 f3       	breq	.-12     	; 0x1774 <_ZN26Adafruit_VS1053_FilePlayer16startPlayingFileEPKc+0xd2>
    1780:	78 01       	movw	r14, r16
    1782:	fe e5       	ldi	r31, 0x5E	; 94
    1784:	ef 0e       	add	r14, r31
    1786:	f1 1c       	adc	r15, r1
    1788:	03 c0       	rjmp	.+6      	; 0x1790 <_ZN26Adafruit_VS1053_FilePlayer16startPlayingFileEPKc+0xee>
    178a:	c8 01       	movw	r24, r16
    178c:	0e 94 00 0a 	call	0x1400	; 0x1400 <_ZN26Adafruit_VS1053_FilePlayer10feedBufferEv>
    1790:	f7 01       	movw	r30, r14
    1792:	80 81       	ld	r24, Z
    1794:	88 23       	and	r24, r24
    1796:	51 f0       	breq	.+20     	; 0x17ac <_ZN26Adafruit_VS1053_FilePlayer16startPlayingFileEPKc+0x10a>
    1798:	8d 2d       	mov	r24, r13
    179a:	9c 2d       	mov	r25, r12
    179c:	0e 94 15 09 	call	0x122a	; 0x122a <_ZN15Adafruit_VS105312readyForDataEv>
    17a0:	81 11       	cpse	r24, r1
    17a2:	f3 cf       	rjmp	.-26     	; 0x178a <_ZN26Adafruit_VS1053_FilePlayer16startPlayingFileEPKc+0xe8>
    17a4:	81 e0       	ldi	r24, 0x01	; 1
    17a6:	03 c0       	rjmp	.+6      	; 0x17ae <_ZN26Adafruit_VS1053_FilePlayer16startPlayingFileEPKc+0x10c>
    17a8:	80 e0       	ldi	r24, 0x00	; 0
    17aa:	01 c0       	rjmp	.+2      	; 0x17ae <_ZN26Adafruit_VS1053_FilePlayer16startPlayingFileEPKc+0x10c>
    17ac:	81 e0       	ldi	r24, 0x01	; 1
    17ae:	6b 96       	adiw	r28, 0x1b	; 27
    17b0:	0f b6       	in	r0, 0x3f	; 63
    17b2:	f8 94       	cli
    17b4:	de bf       	out	0x3e, r29	; 62
    17b6:	0f be       	out	0x3f, r0	; 63
    17b8:	cd bf       	out	0x3d, r28	; 61
    17ba:	df 91       	pop	r29
    17bc:	cf 91       	pop	r28
    17be:	1f 91       	pop	r17
    17c0:	0f 91       	pop	r16
    17c2:	ff 90       	pop	r15
    17c4:	ef 90       	pop	r14
    17c6:	df 90       	pop	r13
    17c8:	cf 90       	pop	r12
    17ca:	08 95       	ret

000017cc <_ZN15Adafruit_VS10539setVolumeEhh>:
    17cc:	70 e0       	ldi	r23, 0x00	; 0
    17ce:	76 2f       	mov	r23, r22
    17d0:	66 27       	eor	r22, r22
    17d2:	f8 94       	cli
    17d4:	9b 01       	movw	r18, r22
    17d6:	24 2b       	or	r18, r20
    17d8:	a9 01       	movw	r20, r18
    17da:	6b e0       	ldi	r22, 0x0B	; 11
    17dc:	0e 94 e5 0a 	call	0x15ca	; 0x15ca <_ZN15Adafruit_VS10538sciWriteEhj>
    17e0:	78 94       	sei
    17e2:	08 95       	ret

000017e4 <_ZN15Adafruit_VS10539softResetEv>:
    17e4:	44 e0       	ldi	r20, 0x04	; 4
    17e6:	58 e0       	ldi	r21, 0x08	; 8
    17e8:	60 e0       	ldi	r22, 0x00	; 0
    17ea:	0e 94 e5 0a 	call	0x15ca	; 0x15ca <_ZN15Adafruit_VS10538sciWriteEhj>
    17ee:	64 e6       	ldi	r22, 0x64	; 100
    17f0:	70 e0       	ldi	r23, 0x00	; 0
    17f2:	80 e0       	ldi	r24, 0x00	; 0
    17f4:	90 e0       	ldi	r25, 0x00	; 0
    17f6:	0e 94 7e 07 	call	0xefc	; 0xefc <delay>
    17fa:	08 95       	ret

000017fc <_ZN15Adafruit_VS10535resetEv>:
    17fc:	cf 93       	push	r28
    17fe:	df 93       	push	r29
    1800:	ec 01       	movw	r28, r24
    1802:	8c a1       	ldd	r24, Y+36	; 0x24
    1804:	88 23       	and	r24, r24
    1806:	6c f0       	brlt	.+26     	; 0x1822 <_ZN15Adafruit_VS10535resetEv+0x26>
    1808:	60 e0       	ldi	r22, 0x00	; 0
    180a:	0e 94 5b 08 	call	0x10b6	; 0x10b6 <digitalWrite>
    180e:	64 e6       	ldi	r22, 0x64	; 100
    1810:	70 e0       	ldi	r23, 0x00	; 0
    1812:	80 e0       	ldi	r24, 0x00	; 0
    1814:	90 e0       	ldi	r25, 0x00	; 0
    1816:	0e 94 7e 07 	call	0xefc	; 0xefc <delay>
    181a:	61 e0       	ldi	r22, 0x01	; 1
    181c:	8c a1       	ldd	r24, Y+36	; 0x24
    181e:	0e 94 5b 08 	call	0x10b6	; 0x10b6 <digitalWrite>
    1822:	61 e0       	ldi	r22, 0x01	; 1
    1824:	8d a1       	ldd	r24, Y+37	; 0x25
    1826:	0e 94 5b 08 	call	0x10b6	; 0x10b6 <digitalWrite>
    182a:	61 e0       	ldi	r22, 0x01	; 1
    182c:	8e a1       	ldd	r24, Y+38	; 0x26
    182e:	0e 94 5b 08 	call	0x10b6	; 0x10b6 <digitalWrite>
    1832:	64 e6       	ldi	r22, 0x64	; 100
    1834:	70 e0       	ldi	r23, 0x00	; 0
    1836:	80 e0       	ldi	r24, 0x00	; 0
    1838:	90 e0       	ldi	r25, 0x00	; 0
    183a:	0e 94 7e 07 	call	0xefc	; 0xefc <delay>
    183e:	ce 01       	movw	r24, r28
    1840:	0e 94 f2 0b 	call	0x17e4	; 0x17e4 <_ZN15Adafruit_VS10539softResetEv>
    1844:	64 e6       	ldi	r22, 0x64	; 100
    1846:	70 e0       	ldi	r23, 0x00	; 0
    1848:	80 e0       	ldi	r24, 0x00	; 0
    184a:	90 e0       	ldi	r25, 0x00	; 0
    184c:	0e 94 7e 07 	call	0xefc	; 0xefc <delay>
    1850:	40 e0       	ldi	r20, 0x00	; 0
    1852:	50 e6       	ldi	r21, 0x60	; 96
    1854:	63 e0       	ldi	r22, 0x03	; 3
    1856:	ce 01       	movw	r24, r28
    1858:	0e 94 e5 0a 	call	0x15ca	; 0x15ca <_ZN15Adafruit_VS10538sciWriteEhj>
    185c:	48 e2       	ldi	r20, 0x28	; 40
    185e:	68 e2       	ldi	r22, 0x28	; 40
    1860:	ce 01       	movw	r24, r28
    1862:	0e 94 e6 0b 	call	0x17cc	; 0x17cc <_ZN15Adafruit_VS10539setVolumeEhh>
    1866:	df 91       	pop	r29
    1868:	cf 91       	pop	r28
    186a:	08 95       	ret

0000186c <_ZN15Adafruit_VS10535beginEv>:
    186c:	cf 93       	push	r28
    186e:	df 93       	push	r29
    1870:	ec 01       	movw	r28, r24
    1872:	8c a1       	ldd	r24, Y+36	; 0x24
    1874:	88 23       	and	r24, r24
    1876:	3c f0       	brlt	.+14     	; 0x1886 <_ZN15Adafruit_VS10535beginEv+0x1a>
    1878:	61 e0       	ldi	r22, 0x01	; 1
    187a:	0e 94 1d 08 	call	0x103a	; 0x103a <pinMode>
    187e:	60 e0       	ldi	r22, 0x00	; 0
    1880:	8c a1       	ldd	r24, Y+36	; 0x24
    1882:	0e 94 5b 08 	call	0x10b6	; 0x10b6 <digitalWrite>
    1886:	61 e0       	ldi	r22, 0x01	; 1
    1888:	8d a1       	ldd	r24, Y+37	; 0x25
    188a:	0e 94 1d 08 	call	0x103a	; 0x103a <pinMode>
    188e:	61 e0       	ldi	r22, 0x01	; 1
    1890:	8d a1       	ldd	r24, Y+37	; 0x25
    1892:	0e 94 5b 08 	call	0x10b6	; 0x10b6 <digitalWrite>
    1896:	61 e0       	ldi	r22, 0x01	; 1
    1898:	8e a1       	ldd	r24, Y+38	; 0x26
    189a:	0e 94 1d 08 	call	0x103a	; 0x103a <pinMode>
    189e:	61 e0       	ldi	r22, 0x01	; 1
    18a0:	8e a1       	ldd	r24, Y+38	; 0x26
    18a2:	0e 94 5b 08 	call	0x10b6	; 0x10b6 <digitalWrite>
    18a6:	60 e0       	ldi	r22, 0x00	; 0
    18a8:	88 a1       	ldd	r24, Y+32	; 0x20
    18aa:	0e 94 1d 08 	call	0x103a	; 0x103a <pinMode>
    18ae:	8f a1       	ldd	r24, Y+39	; 0x27
    18b0:	81 11       	cpse	r24, r1
    18b2:	0d c0       	rjmp	.+26     	; 0x18ce <_ZN15Adafruit_VS10535beginEv+0x62>
    18b4:	61 e0       	ldi	r22, 0x01	; 1
    18b6:	89 a1       	ldd	r24, Y+33	; 0x21
    18b8:	0e 94 1d 08 	call	0x103a	; 0x103a <pinMode>
    18bc:	61 e0       	ldi	r22, 0x01	; 1
    18be:	8b a1       	ldd	r24, Y+35	; 0x23
    18c0:	0e 94 1d 08 	call	0x103a	; 0x103a <pinMode>
    18c4:	60 e0       	ldi	r22, 0x00	; 0
    18c6:	8a a1       	ldd	r24, Y+34	; 0x22
    18c8:	0e 94 1d 08 	call	0x103a	; 0x103a <pinMode>
    18cc:	0e c0       	rjmp	.+28     	; 0x18ea <_ZN15Adafruit_VS10535beginEv+0x7e>
    18ce:	0e 94 a8 21 	call	0x4350	; 0x4350 <_ZN8SPIClass5beginEv>
    18d2:	8c b5       	in	r24, 0x2c	; 44
    18d4:	83 7f       	andi	r24, 0xF3	; 243
    18d6:	8c bd       	out	0x2c, r24	; 44
    18d8:	8c b5       	in	r24, 0x2c	; 44
    18da:	8f 7d       	andi	r24, 0xDF	; 223
    18dc:	8c bd       	out	0x2c, r24	; 44
    18de:	8c b5       	in	r24, 0x2c	; 44
    18e0:	83 60       	ori	r24, 0x03	; 3
    18e2:	8c bd       	out	0x2c, r24	; 44
    18e4:	8d b5       	in	r24, 0x2d	; 45
    18e6:	8e 7f       	andi	r24, 0xFE	; 254
    18e8:	8d bd       	out	0x2d, r24	; 45
    18ea:	ce 01       	movw	r24, r28
    18ec:	0e 94 fe 0b 	call	0x17fc	; 0x17fc <_ZN15Adafruit_VS10535resetEv>
    18f0:	61 e0       	ldi	r22, 0x01	; 1
    18f2:	ce 01       	movw	r24, r28
    18f4:	0e 94 88 0a 	call	0x1510	; 0x1510 <_ZN15Adafruit_VS10537sciReadEh>
    18f8:	92 95       	swap	r25
    18fa:	82 95       	swap	r24
    18fc:	8f 70       	andi	r24, 0x0F	; 15
    18fe:	89 27       	eor	r24, r25
    1900:	9f 70       	andi	r25, 0x0F	; 15
    1902:	89 27       	eor	r24, r25
    1904:	8f 70       	andi	r24, 0x0F	; 15
    1906:	df 91       	pop	r29
    1908:	cf 91       	pop	r28
    190a:	08 95       	ret

0000190c <_ZN26Adafruit_VS1053_FilePlayer5beginEv>:
    190c:	0e 94 36 0c 	call	0x186c	; 0x186c <_ZN15Adafruit_VS10535beginEv>
    1910:	91 e0       	ldi	r25, 0x01	; 1
    1912:	84 30       	cpi	r24, 0x04	; 4
    1914:	09 f0       	breq	.+2      	; 0x1918 <_ZN26Adafruit_VS1053_FilePlayer5beginEv+0xc>
    1916:	90 e0       	ldi	r25, 0x00	; 0
    1918:	89 2f       	mov	r24, r25
    191a:	08 95       	ret

0000191c <_ZN5SDLib4File5writeEh>:
    191c:	cf 93       	push	r28
    191e:	df 93       	push	r29
    1920:	1f 92       	push	r1
    1922:	cd b7       	in	r28, 0x3d	; 61
    1924:	de b7       	in	r29, 0x3e	; 62
    1926:	69 83       	std	Y+1, r22	; 0x01
    1928:	dc 01       	movw	r26, r24
    192a:	ed 91       	ld	r30, X+
    192c:	fc 91       	ld	r31, X
    192e:	02 80       	ldd	r0, Z+2	; 0x02
    1930:	f3 81       	ldd	r31, Z+3	; 0x03
    1932:	e0 2d       	mov	r30, r0
    1934:	41 e0       	ldi	r20, 0x01	; 1
    1936:	50 e0       	ldi	r21, 0x00	; 0
    1938:	be 01       	movw	r22, r28
    193a:	6f 5f       	subi	r22, 0xFF	; 255
    193c:	7f 4f       	sbci	r23, 0xFF	; 255
    193e:	09 95       	icall
    1940:	0f 90       	pop	r0
    1942:	df 91       	pop	r29
    1944:	cf 91       	pop	r28
    1946:	08 95       	ret

00001948 <_ZN5SDLib4File5writeEPKhj>:
    1948:	cf 93       	push	r28
    194a:	df 93       	push	r29
    194c:	ec 01       	movw	r28, r24
    194e:	e9 8d       	ldd	r30, Y+25	; 0x19
    1950:	fa 8d       	ldd	r31, Y+26	; 0x1a
    1952:	30 97       	sbiw	r30, 0x00	; 0
    1954:	39 f4       	brne	.+14     	; 0x1964 <_ZN5SDLib4File5writeEPKhj+0x1c>
    1956:	81 e0       	ldi	r24, 0x01	; 1
    1958:	90 e0       	ldi	r25, 0x00	; 0
    195a:	9b 83       	std	Y+3, r25	; 0x03
    195c:	8a 83       	std	Y+2, r24	; 0x02
    195e:	80 e0       	ldi	r24, 0x00	; 0
    1960:	90 e0       	ldi	r25, 0x00	; 0
    1962:	12 c0       	rjmp	.+36     	; 0x1988 <_ZN5SDLib4File5writeEPKhj+0x40>
    1964:	13 82       	std	Z+3, r1	; 0x03
    1966:	12 82       	std	Z+2, r1	; 0x02
    1968:	89 8d       	ldd	r24, Y+25	; 0x19
    196a:	9a 8d       	ldd	r25, Y+26	; 0x1a
    196c:	0e 94 44 1a 	call	0x3488	; 0x3488 <_ZN6SdFile5writeEPKvj>
    1970:	e9 8d       	ldd	r30, Y+25	; 0x19
    1972:	fa 8d       	ldd	r31, Y+26	; 0x1a
    1974:	22 81       	ldd	r18, Z+2	; 0x02
    1976:	33 81       	ldd	r19, Z+3	; 0x03
    1978:	23 2b       	or	r18, r19
    197a:	31 f0       	breq	.+12     	; 0x1988 <_ZN5SDLib4File5writeEPKhj+0x40>
    197c:	81 e0       	ldi	r24, 0x01	; 1
    197e:	90 e0       	ldi	r25, 0x00	; 0
    1980:	9b 83       	std	Y+3, r25	; 0x03
    1982:	8a 83       	std	Y+2, r24	; 0x02
    1984:	80 e0       	ldi	r24, 0x00	; 0
    1986:	90 e0       	ldi	r25, 0x00	; 0
    1988:	df 91       	pop	r29
    198a:	cf 91       	pop	r28
    198c:	08 95       	ret

0000198e <_ZN5SDLib4File4readEv>:
    198e:	cf 93       	push	r28
    1990:	df 93       	push	r29
    1992:	1f 92       	push	r1
    1994:	cd b7       	in	r28, 0x3d	; 61
    1996:	de b7       	in	r29, 0x3e	; 62
    1998:	fc 01       	movw	r30, r24
    199a:	81 8d       	ldd	r24, Z+25	; 0x19
    199c:	92 8d       	ldd	r25, Z+26	; 0x1a
    199e:	00 97       	sbiw	r24, 0x00	; 0
    19a0:	89 f0       	breq	.+34     	; 0x19c4 <_ZN5SDLib4File4readEv+0x36>
    19a2:	41 e0       	ldi	r20, 0x01	; 1
    19a4:	50 e0       	ldi	r21, 0x00	; 0
    19a6:	be 01       	movw	r22, r28
    19a8:	6f 5f       	subi	r22, 0xFF	; 255
    19aa:	7f 4f       	sbci	r23, 0xFF	; 255
    19ac:	0e 94 3a 15 	call	0x2a74	; 0x2a74 <_ZN6SdFile4readEPvj>
    19b0:	01 97       	sbiw	r24, 0x01	; 1
    19b2:	19 f4       	brne	.+6      	; 0x19ba <_ZN5SDLib4File4readEv+0x2c>
    19b4:	29 81       	ldd	r18, Y+1	; 0x01
    19b6:	30 e0       	ldi	r19, 0x00	; 0
    19b8:	02 c0       	rjmp	.+4      	; 0x19be <_ZN5SDLib4File4readEv+0x30>
    19ba:	2f ef       	ldi	r18, 0xFF	; 255
    19bc:	3f ef       	ldi	r19, 0xFF	; 255
    19be:	82 2f       	mov	r24, r18
    19c0:	93 2f       	mov	r25, r19
    19c2:	02 c0       	rjmp	.+4      	; 0x19c8 <_ZN5SDLib4File4readEv+0x3a>
    19c4:	8f ef       	ldi	r24, 0xFF	; 255
    19c6:	9f ef       	ldi	r25, 0xFF	; 255
    19c8:	0f 90       	pop	r0
    19ca:	df 91       	pop	r29
    19cc:	cf 91       	pop	r28
    19ce:	08 95       	ret

000019d0 <_ZN5SDLib4File4peekEv>:
    19d0:	ef 92       	push	r14
    19d2:	ff 92       	push	r15
    19d4:	0f 93       	push	r16
    19d6:	1f 93       	push	r17
    19d8:	cf 93       	push	r28
    19da:	df 93       	push	r29
    19dc:	1f 92       	push	r1
    19de:	cd b7       	in	r28, 0x3d	; 61
    19e0:	de b7       	in	r29, 0x3e	; 62
    19e2:	7c 01       	movw	r14, r24
    19e4:	fc 01       	movw	r30, r24
    19e6:	81 8d       	ldd	r24, Z+25	; 0x19
    19e8:	92 8d       	ldd	r25, Z+26	; 0x1a
    19ea:	00 97       	sbiw	r24, 0x00	; 0
    19ec:	e1 f0       	breq	.+56     	; 0x1a26 <_ZN5SDLib4File4peekEv+0x56>
    19ee:	41 e0       	ldi	r20, 0x01	; 1
    19f0:	50 e0       	ldi	r21, 0x00	; 0
    19f2:	be 01       	movw	r22, r28
    19f4:	6f 5f       	subi	r22, 0xFF	; 255
    19f6:	7f 4f       	sbci	r23, 0xFF	; 255
    19f8:	0e 94 3a 15 	call	0x2a74	; 0x2a74 <_ZN6SdFile4readEPvj>
    19fc:	01 97       	sbiw	r24, 0x01	; 1
    19fe:	b1 f4       	brne	.+44     	; 0x1a2c <_ZN5SDLib4File4peekEv+0x5c>
    1a00:	09 81       	ldd	r16, Y+1	; 0x01
    1a02:	10 e0       	ldi	r17, 0x00	; 0
    1a04:	f7 01       	movw	r30, r14
    1a06:	81 8d       	ldd	r24, Z+25	; 0x19
    1a08:	92 8d       	ldd	r25, Z+26	; 0x1a
    1a0a:	fc 01       	movw	r30, r24
    1a0c:	42 85       	ldd	r20, Z+10	; 0x0a
    1a0e:	53 85       	ldd	r21, Z+11	; 0x0b
    1a10:	64 85       	ldd	r22, Z+12	; 0x0c
    1a12:	75 85       	ldd	r23, Z+13	; 0x0d
    1a14:	41 50       	subi	r20, 0x01	; 1
    1a16:	51 09       	sbc	r21, r1
    1a18:	61 09       	sbc	r22, r1
    1a1a:	71 09       	sbc	r23, r1
    1a1c:	0e 94 f5 16 	call	0x2dea	; 0x2dea <_ZN6SdFile7seekSetEm>
    1a20:	80 2f       	mov	r24, r16
    1a22:	91 2f       	mov	r25, r17
    1a24:	05 c0       	rjmp	.+10     	; 0x1a30 <_ZN5SDLib4File4peekEv+0x60>
    1a26:	80 e0       	ldi	r24, 0x00	; 0
    1a28:	90 e0       	ldi	r25, 0x00	; 0
    1a2a:	02 c0       	rjmp	.+4      	; 0x1a30 <_ZN5SDLib4File4peekEv+0x60>
    1a2c:	8f ef       	ldi	r24, 0xFF	; 255
    1a2e:	9f ef       	ldi	r25, 0xFF	; 255
    1a30:	0f 90       	pop	r0
    1a32:	df 91       	pop	r29
    1a34:	cf 91       	pop	r28
    1a36:	1f 91       	pop	r17
    1a38:	0f 91       	pop	r16
    1a3a:	ff 90       	pop	r15
    1a3c:	ef 90       	pop	r14
    1a3e:	08 95       	ret

00001a40 <_ZN5SDLib4File5flushEv>:
    1a40:	fc 01       	movw	r30, r24
    1a42:	81 8d       	ldd	r24, Z+25	; 0x19
    1a44:	92 8d       	ldd	r25, Z+26	; 0x1a
    1a46:	00 97       	sbiw	r24, 0x00	; 0
    1a48:	11 f0       	breq	.+4      	; 0x1a4e <_ZN5SDLib4File5flushEv+0xe>
    1a4a:	0e 94 a3 17 	call	0x2f46	; 0x2f46 <_ZN6SdFile4syncEv>
    1a4e:	08 95       	ret

00001a50 <_ZN5SDLib4FileC1E6SdFilePKc>:
    1a50:	cf 92       	push	r12
    1a52:	df 92       	push	r13
    1a54:	ef 92       	push	r14
    1a56:	ff 92       	push	r15
    1a58:	0f 93       	push	r16
    1a5a:	1f 93       	push	r17
    1a5c:	cf 93       	push	r28
    1a5e:	df 93       	push	r29
    1a60:	ec 01       	movw	r28, r24
    1a62:	7b 01       	movw	r14, r22
    1a64:	6a 01       	movw	r12, r20
    1a66:	1b 82       	std	Y+3, r1	; 0x03
    1a68:	1a 82       	std	Y+2, r1	; 0x02
    1a6a:	08 ee       	ldi	r16, 0xE8	; 232
    1a6c:	13 e0       	ldi	r17, 0x03	; 3
    1a6e:	20 e0       	ldi	r18, 0x00	; 0
    1a70:	30 e0       	ldi	r19, 0x00	; 0
    1a72:	0c 83       	std	Y+4, r16	; 0x04
    1a74:	1d 83       	std	Y+5, r17	; 0x05
    1a76:	2e 83       	std	Y+6, r18	; 0x06
    1a78:	3f 83       	std	Y+7, r19	; 0x07
    1a7a:	89 e2       	ldi	r24, 0x29	; 41
    1a7c:	91 e0       	ldi	r25, 0x01	; 1
    1a7e:	99 83       	std	Y+1, r25	; 0x01
    1a80:	88 83       	st	Y, r24
    1a82:	8d e1       	ldi	r24, 0x1D	; 29
    1a84:	90 e0       	ldi	r25, 0x00	; 0
    1a86:	0e 94 ca 00 	call	0x194	; 0x194 <malloc>
    1a8a:	9a 8f       	std	Y+26, r25	; 0x1a
    1a8c:	89 8f       	std	Y+25, r24	; 0x19
    1a8e:	00 97       	sbiw	r24, 0x00	; 0
    1a90:	79 f0       	breq	.+30     	; 0x1ab0 <_ZN5SDLib4FileC1E6SdFilePKc+0x60>
    1a92:	2d e1       	ldi	r18, 0x1D	; 29
    1a94:	f7 01       	movw	r30, r14
    1a96:	dc 01       	movw	r26, r24
    1a98:	01 90       	ld	r0, Z+
    1a9a:	0d 92       	st	X+, r0
    1a9c:	2a 95       	dec	r18
    1a9e:	e1 f7       	brne	.-8      	; 0x1a98 <_ZN5SDLib4FileC1E6SdFilePKc+0x48>
    1aa0:	4c e0       	ldi	r20, 0x0C	; 12
    1aa2:	50 e0       	ldi	r21, 0x00	; 0
    1aa4:	b6 01       	movw	r22, r12
    1aa6:	ce 01       	movw	r24, r28
    1aa8:	0c 96       	adiw	r24, 0x0c	; 12
    1aaa:	0e 94 1b 25 	call	0x4a36	; 0x4a36 <strncpy>
    1aae:	18 8e       	std	Y+24, r1	; 0x18
    1ab0:	df 91       	pop	r29
    1ab2:	cf 91       	pop	r28
    1ab4:	1f 91       	pop	r17
    1ab6:	0f 91       	pop	r16
    1ab8:	ff 90       	pop	r15
    1aba:	ef 90       	pop	r14
    1abc:	df 90       	pop	r13
    1abe:	cf 90       	pop	r12
    1ac0:	08 95       	ret

00001ac2 <_ZN5SDLib4FileC1Ev>:
    1ac2:	fc 01       	movw	r30, r24
    1ac4:	13 82       	std	Z+3, r1	; 0x03
    1ac6:	12 82       	std	Z+2, r1	; 0x02
    1ac8:	48 ee       	ldi	r20, 0xE8	; 232
    1aca:	53 e0       	ldi	r21, 0x03	; 3
    1acc:	60 e0       	ldi	r22, 0x00	; 0
    1ace:	70 e0       	ldi	r23, 0x00	; 0
    1ad0:	44 83       	std	Z+4, r20	; 0x04
    1ad2:	55 83       	std	Z+5, r21	; 0x05
    1ad4:	66 83       	std	Z+6, r22	; 0x06
    1ad6:	77 83       	std	Z+7, r23	; 0x07
    1ad8:	89 e2       	ldi	r24, 0x29	; 41
    1ada:	91 e0       	ldi	r25, 0x01	; 1
    1adc:	91 83       	std	Z+1, r25	; 0x01
    1ade:	80 83       	st	Z, r24
    1ae0:	12 8e       	std	Z+26, r1	; 0x1a
    1ae2:	11 8e       	std	Z+25, r1	; 0x19
    1ae4:	14 86       	std	Z+12, r1	; 0x0c
    1ae6:	08 95       	ret

00001ae8 <_ZN5SDLib4File4readEPvj>:
    1ae8:	fc 01       	movw	r30, r24
    1aea:	81 8d       	ldd	r24, Z+25	; 0x19
    1aec:	92 8d       	ldd	r25, Z+26	; 0x1a
    1aee:	00 97       	sbiw	r24, 0x00	; 0
    1af0:	19 f0       	breq	.+6      	; 0x1af8 <_ZN5SDLib4File4readEPvj+0x10>
    1af2:	0e 94 3a 15 	call	0x2a74	; 0x2a74 <_ZN6SdFile4readEPvj>
    1af6:	08 95       	ret
    1af8:	80 e0       	ldi	r24, 0x00	; 0
    1afa:	90 e0       	ldi	r25, 0x00	; 0
    1afc:	08 95       	ret

00001afe <_ZN5SDLib4File8positionEv>:
    1afe:	dc 01       	movw	r26, r24
    1b00:	59 96       	adiw	r26, 0x19	; 25
    1b02:	ed 91       	ld	r30, X+
    1b04:	fc 91       	ld	r31, X
    1b06:	5a 97       	sbiw	r26, 0x1a	; 26
    1b08:	30 97       	sbiw	r30, 0x00	; 0
    1b0a:	29 f0       	breq	.+10     	; 0x1b16 <_ZN5SDLib4File8positionEv+0x18>
    1b0c:	62 85       	ldd	r22, Z+10	; 0x0a
    1b0e:	73 85       	ldd	r23, Z+11	; 0x0b
    1b10:	84 85       	ldd	r24, Z+12	; 0x0c
    1b12:	95 85       	ldd	r25, Z+13	; 0x0d
    1b14:	08 95       	ret
    1b16:	6f ef       	ldi	r22, 0xFF	; 255
    1b18:	7f ef       	ldi	r23, 0xFF	; 255
    1b1a:	cb 01       	movw	r24, r22
    1b1c:	08 95       	ret

00001b1e <_ZN5SDLib4File4sizeEv>:
    1b1e:	dc 01       	movw	r26, r24
    1b20:	59 96       	adiw	r26, 0x19	; 25
    1b22:	ed 91       	ld	r30, X+
    1b24:	fc 91       	ld	r31, X
    1b26:	5a 97       	sbiw	r26, 0x1a	; 26
    1b28:	30 97       	sbiw	r30, 0x00	; 0
    1b2a:	29 f0       	breq	.+10     	; 0x1b36 <_ZN5SDLib4File4sizeEv+0x18>
    1b2c:	63 89       	ldd	r22, Z+19	; 0x13
    1b2e:	74 89       	ldd	r23, Z+20	; 0x14
    1b30:	85 89       	ldd	r24, Z+21	; 0x15
    1b32:	96 89       	ldd	r25, Z+22	; 0x16
    1b34:	08 95       	ret
    1b36:	60 e0       	ldi	r22, 0x00	; 0
    1b38:	70 e0       	ldi	r23, 0x00	; 0
    1b3a:	cb 01       	movw	r24, r22
    1b3c:	08 95       	ret

00001b3e <_ZN5SDLib4File9availableEv>:
    1b3e:	cf 92       	push	r12
    1b40:	df 92       	push	r13
    1b42:	ef 92       	push	r14
    1b44:	ff 92       	push	r15
    1b46:	cf 93       	push	r28
    1b48:	df 93       	push	r29
    1b4a:	ec 01       	movw	r28, r24
    1b4c:	89 8d       	ldd	r24, Y+25	; 0x19
    1b4e:	9a 8d       	ldd	r25, Y+26	; 0x1a
    1b50:	89 2b       	or	r24, r25
    1b52:	d9 f0       	breq	.+54     	; 0x1b8a <_ZN5SDLib4File9availableEv+0x4c>
    1b54:	ce 01       	movw	r24, r28
    1b56:	0e 94 8f 0d 	call	0x1b1e	; 0x1b1e <_ZN5SDLib4File4sizeEv>
    1b5a:	6b 01       	movw	r12, r22
    1b5c:	7c 01       	movw	r14, r24
    1b5e:	ce 01       	movw	r24, r28
    1b60:	0e 94 7f 0d 	call	0x1afe	; 0x1afe <_ZN5SDLib4File8positionEv>
    1b64:	a7 01       	movw	r20, r14
    1b66:	96 01       	movw	r18, r12
    1b68:	26 1b       	sub	r18, r22
    1b6a:	37 0b       	sbc	r19, r23
    1b6c:	48 0b       	sbc	r20, r24
    1b6e:	59 0b       	sbc	r21, r25
    1b70:	da 01       	movw	r26, r20
    1b72:	c9 01       	movw	r24, r18
    1b74:	81 15       	cp	r24, r1
    1b76:	30 e8       	ldi	r19, 0x80	; 128
    1b78:	93 07       	cpc	r25, r19
    1b7a:	a1 05       	cpc	r26, r1
    1b7c:	b1 05       	cpc	r27, r1
    1b7e:	38 f0       	brcs	.+14     	; 0x1b8e <_ZN5SDLib4File9availableEv+0x50>
    1b80:	8f ef       	ldi	r24, 0xFF	; 255
    1b82:	9f e7       	ldi	r25, 0x7F	; 127
    1b84:	a0 e0       	ldi	r26, 0x00	; 0
    1b86:	b0 e0       	ldi	r27, 0x00	; 0
    1b88:	02 c0       	rjmp	.+4      	; 0x1b8e <_ZN5SDLib4File9availableEv+0x50>
    1b8a:	80 e0       	ldi	r24, 0x00	; 0
    1b8c:	90 e0       	ldi	r25, 0x00	; 0
    1b8e:	df 91       	pop	r29
    1b90:	cf 91       	pop	r28
    1b92:	ff 90       	pop	r15
    1b94:	ef 90       	pop	r14
    1b96:	df 90       	pop	r13
    1b98:	cf 90       	pop	r12
    1b9a:	08 95       	ret

00001b9c <_ZN5SDLib4File5closeEv>:
    1b9c:	cf 93       	push	r28
    1b9e:	df 93       	push	r29
    1ba0:	ec 01       	movw	r28, r24
    1ba2:	89 8d       	ldd	r24, Y+25	; 0x19
    1ba4:	9a 8d       	ldd	r25, Y+26	; 0x1a
    1ba6:	00 97       	sbiw	r24, 0x00	; 0
    1ba8:	41 f0       	breq	.+16     	; 0x1bba <_ZN5SDLib4File5closeEv+0x1e>
    1baa:	0e 94 eb 17 	call	0x2fd6	; 0x2fd6 <_ZN6SdFile5closeEv>
    1bae:	89 8d       	ldd	r24, Y+25	; 0x19
    1bb0:	9a 8d       	ldd	r25, Y+26	; 0x1a
    1bb2:	0e 94 77 01 	call	0x2ee	; 0x2ee <free>
    1bb6:	1a 8e       	std	Y+26, r1	; 0x1a
    1bb8:	19 8e       	std	Y+25, r1	; 0x19
    1bba:	df 91       	pop	r29
    1bbc:	cf 91       	pop	r28
    1bbe:	08 95       	ret

00001bc0 <_ZN5SDLib4FilecvbEv>:
    1bc0:	dc 01       	movw	r26, r24
    1bc2:	59 96       	adiw	r26, 0x19	; 25
    1bc4:	ed 91       	ld	r30, X+
    1bc6:	fc 91       	ld	r31, X
    1bc8:	5a 97       	sbiw	r26, 0x1a	; 26
    1bca:	30 97       	sbiw	r30, 0x00	; 0
    1bcc:	31 f0       	breq	.+12     	; 0x1bda <_ZN5SDLib4FilecvbEv+0x1a>
    1bce:	81 e0       	ldi	r24, 0x01	; 1
    1bd0:	95 81       	ldd	r25, Z+5	; 0x05
    1bd2:	91 11       	cpse	r25, r1
    1bd4:	03 c0       	rjmp	.+6      	; 0x1bdc <_ZN5SDLib4FilecvbEv+0x1c>
    1bd6:	80 e0       	ldi	r24, 0x00	; 0
    1bd8:	08 95       	ret
    1bda:	80 e0       	ldi	r24, 0x00	; 0
    1bdc:	08 95       	ret

00001bde <_ZN5SDLib7SDClass5beginEh>:
    1bde:	0f 93       	push	r16
    1be0:	1f 93       	push	r17
    1be2:	cf 93       	push	r28
    1be4:	df 93       	push	r29
    1be6:	ec 01       	movw	r28, r24
    1be8:	46 2f       	mov	r20, r22
    1bea:	61 e0       	ldi	r22, 0x01	; 1
    1bec:	0e 94 b8 11 	call	0x2370	; 0x2370 <_ZN7Sd2Card4initEhh>
    1bf0:	88 23       	and	r24, r24
    1bf2:	e1 f0       	breq	.+56     	; 0x1c2c <_ZN5SDLib7SDClass5beginEh+0x4e>
    1bf4:	8e 01       	movw	r16, r28
    1bf6:	04 5f       	subi	r16, 0xF4	; 244
    1bf8:	1f 4f       	sbci	r17, 0xFF	; 255
    1bfa:	41 e0       	ldi	r20, 0x01	; 1
    1bfc:	be 01       	movw	r22, r28
    1bfe:	c8 01       	movw	r24, r16
    1c00:	0e 94 74 20 	call	0x40e8	; 0x40e8 <_ZN8SdVolume4initEP7Sd2Cardh>
    1c04:	81 11       	cpse	r24, r1
    1c06:	07 c0       	rjmp	.+14     	; 0x1c16 <_ZN5SDLib7SDClass5beginEh+0x38>
    1c08:	40 e0       	ldi	r20, 0x00	; 0
    1c0a:	be 01       	movw	r22, r28
    1c0c:	c8 01       	movw	r24, r16
    1c0e:	0e 94 74 20 	call	0x40e8	; 0x40e8 <_ZN8SdVolume4initEP7Sd2Cardh>
    1c12:	88 23       	and	r24, r24
    1c14:	69 f0       	breq	.+26     	; 0x1c30 <_ZN5SDLib7SDClass5beginEh+0x52>
    1c16:	b8 01       	movw	r22, r16
    1c18:	ce 01       	movw	r24, r28
    1c1a:	8a 96       	adiw	r24, 0x2a	; 42
    1c1c:	0e 94 d9 14 	call	0x29b2	; 0x29b2 <_ZN6SdFile8openRootEP8SdVolume>
    1c20:	91 e0       	ldi	r25, 0x01	; 1
    1c22:	81 11       	cpse	r24, r1
    1c24:	01 c0       	rjmp	.+2      	; 0x1c28 <_ZN5SDLib7SDClass5beginEh+0x4a>
    1c26:	90 e0       	ldi	r25, 0x00	; 0
    1c28:	89 2f       	mov	r24, r25
    1c2a:	03 c0       	rjmp	.+6      	; 0x1c32 <_ZN5SDLib7SDClass5beginEh+0x54>
    1c2c:	80 e0       	ldi	r24, 0x00	; 0
    1c2e:	01 c0       	rjmp	.+2      	; 0x1c32 <_ZN5SDLib7SDClass5beginEh+0x54>
    1c30:	80 e0       	ldi	r24, 0x00	; 0
    1c32:	df 91       	pop	r29
    1c34:	cf 91       	pop	r28
    1c36:	1f 91       	pop	r17
    1c38:	0f 91       	pop	r16
    1c3a:	08 95       	ret

00001c3c <_ZN5SDLib7SDClass12getParentDirEPKcPi>:
    1c3c:	3f 92       	push	r3
    1c3e:	4f 92       	push	r4
    1c40:	5f 92       	push	r5
    1c42:	6f 92       	push	r6
    1c44:	7f 92       	push	r7
    1c46:	8f 92       	push	r8
    1c48:	9f 92       	push	r9
    1c4a:	af 92       	push	r10
    1c4c:	bf 92       	push	r11
    1c4e:	cf 92       	push	r12
    1c50:	df 92       	push	r13
    1c52:	ef 92       	push	r14
    1c54:	ff 92       	push	r15
    1c56:	0f 93       	push	r16
    1c58:	1f 93       	push	r17
    1c5a:	cf 93       	push	r28
    1c5c:	df 93       	push	r29
    1c5e:	cd b7       	in	r28, 0x3d	; 61
    1c60:	de b7       	in	r29, 0x3e	; 62
    1c62:	c7 54       	subi	r28, 0x47	; 71
    1c64:	d1 09       	sbc	r29, r1
    1c66:	0f b6       	in	r0, 0x3f	; 63
    1c68:	f8 94       	cli
    1c6a:	de bf       	out	0x3e, r29	; 62
    1c6c:	0f be       	out	0x3f, r0	; 63
    1c6e:	cd bf       	out	0x3d, r28	; 61
    1c70:	4c 01       	movw	r8, r24
    1c72:	fb 01       	movw	r30, r22
    1c74:	3a 01       	movw	r6, r20
    1c76:	29 01       	movw	r4, r18
    1c78:	84 a5       	ldd	r24, Z+44	; 0x2c
    1c7a:	95 a5       	ldd	r25, Z+45	; 0x2d
    1c7c:	99 a3       	std	Y+33, r25	; 0x21
    1c7e:	88 a3       	std	Y+32, r24	; 0x20
    1c80:	2b e3       	ldi	r18, 0x3B	; 59
    1c82:	31 e0       	ldi	r19, 0x01	; 1
    1c84:	3f 8f       	std	Y+31, r19	; 0x1f
    1c86:	2e 8f       	std	Y+30, r18	; 0x1e
    1c88:	86 a5       	ldd	r24, Z+46	; 0x2e
    1c8a:	8a a3       	std	Y+34, r24	; 0x22
    1c8c:	87 a5       	ldd	r24, Z+47	; 0x2f
    1c8e:	8b a3       	std	Y+35, r24	; 0x23
    1c90:	80 a9       	ldd	r24, Z+48	; 0x30
    1c92:	91 a9       	ldd	r25, Z+49	; 0x31
    1c94:	a2 a9       	ldd	r26, Z+50	; 0x32
    1c96:	b3 a9       	ldd	r27, Z+51	; 0x33
    1c98:	8c a3       	std	Y+36, r24	; 0x24
    1c9a:	9d a3       	std	Y+37, r25	; 0x25
    1c9c:	ae a3       	std	Y+38, r26	; 0x26
    1c9e:	bf a3       	std	Y+39, r27	; 0x27
    1ca0:	84 a9       	ldd	r24, Z+52	; 0x34
    1ca2:	95 a9       	ldd	r25, Z+53	; 0x35
    1ca4:	a6 a9       	ldd	r26, Z+54	; 0x36
    1ca6:	b7 a9       	ldd	r27, Z+55	; 0x37
    1ca8:	88 a7       	std	Y+40, r24	; 0x28
    1caa:	99 a7       	std	Y+41, r25	; 0x29
    1cac:	aa a7       	std	Y+42, r26	; 0x2a
    1cae:	bb a7       	std	Y+43, r27	; 0x2b
    1cb0:	80 ad       	ldd	r24, Z+56	; 0x38
    1cb2:	91 ad       	ldd	r25, Z+57	; 0x39
    1cb4:	a2 ad       	ldd	r26, Z+58	; 0x3a
    1cb6:	b3 ad       	ldd	r27, Z+59	; 0x3b
    1cb8:	8c a7       	std	Y+44, r24	; 0x2c
    1cba:	9d a7       	std	Y+45, r25	; 0x2d
    1cbc:	ae a7       	std	Y+46, r26	; 0x2e
    1cbe:	bf a7       	std	Y+47, r27	; 0x2f
    1cc0:	84 ad       	ldd	r24, Z+60	; 0x3c
    1cc2:	88 ab       	std	Y+48, r24	; 0x30
    1cc4:	db 01       	movw	r26, r22
    1cc6:	dd 96       	adiw	r26, 0x3d	; 61
    1cc8:	8d 91       	ld	r24, X+
    1cca:	9d 91       	ld	r25, X+
    1ccc:	0d 90       	ld	r0, X+
    1cce:	bc 91       	ld	r27, X
    1cd0:	a0 2d       	mov	r26, r0
    1cd2:	89 ab       	std	Y+49, r24	; 0x31
    1cd4:	9a ab       	std	Y+50, r25	; 0x32
    1cd6:	ab ab       	std	Y+51, r26	; 0x33
    1cd8:	bc ab       	std	Y+52, r27	; 0x34
    1cda:	db 01       	movw	r26, r22
    1cdc:	af 5b       	subi	r26, 0xBF	; 191
    1cde:	bf 4f       	sbci	r27, 0xFF	; 255
    1ce0:	8d 91       	ld	r24, X+
    1ce2:	9d 91       	ld	r25, X+
    1ce4:	0d 90       	ld	r0, X+
    1ce6:	bc 91       	ld	r27, X
    1ce8:	a0 2d       	mov	r26, r0
    1cea:	8d ab       	std	Y+53, r24	; 0x35
    1cec:	9e ab       	std	Y+54, r25	; 0x36
    1cee:	af ab       	std	Y+55, r26	; 0x37
    1cf0:	b8 af       	std	Y+56, r27	; 0x38
    1cf2:	eb 5b       	subi	r30, 0xBB	; 187
    1cf4:	ff 4f       	sbci	r31, 0xFF	; 255
    1cf6:	80 81       	ld	r24, Z
    1cf8:	91 81       	ldd	r25, Z+1	; 0x01
    1cfa:	9a af       	std	Y+58, r25	; 0x3a
    1cfc:	89 af       	std	Y+57, r24	; 0x39
    1cfe:	1c 82       	std	Y+4, r1	; 0x04
    1d00:	1b 82       	std	Y+3, r1	; 0x03
    1d02:	3a 83       	std	Y+2, r19	; 0x02
    1d04:	29 83       	std	Y+1, r18	; 0x01
    1d06:	1e 82       	std	Y+6, r1	; 0x06
    1d08:	8a 01       	movw	r16, r20
    1d0a:	ce 01       	movw	r24, r28
    1d0c:	01 96       	adiw	r24, 0x01	; 1
    1d0e:	7c 01       	movw	r14, r24
    1d10:	6e 01       	movw	r12, r28
    1d12:	9e e1       	ldi	r25, 0x1E	; 30
    1d14:	c9 0e       	add	r12, r25
    1d16:	d1 1c       	adc	r13, r1
    1d18:	0f 2e       	mov	r0, r31
    1d1a:	fc e0       	ldi	r31, 0x0C	; 12
    1d1c:	3f 2e       	mov	r3, r31
    1d1e:	f0 2d       	mov	r31, r0
    1d20:	3a c0       	rjmp	.+116    	; 0x1d96 <_ZN5SDLib7SDClass12getParentDirEPKcPi+0x15a>
    1d22:	f8 01       	movw	r30, r16
    1d24:	20 81       	ld	r18, Z
    1d26:	2f 32       	cpi	r18, 0x2F	; 47
    1d28:	19 f4       	brne	.+6      	; 0x1d30 <_ZN5SDLib7SDClass12getParentDirEPKcPi+0xf4>
    1d2a:	0f 5f       	subi	r16, 0xFF	; 255
    1d2c:	1f 4f       	sbci	r17, 0xFF	; 255
    1d2e:	33 c0       	rjmp	.+102    	; 0x1d96 <_ZN5SDLib7SDClass12getParentDirEPKcPi+0x15a>
    1d30:	80 1b       	sub	r24, r16
    1d32:	8d 30       	cpi	r24, 0x0D	; 13
    1d34:	08 f0       	brcs	.+2      	; 0x1d38 <_ZN5SDLib7SDClass12getParentDirEPKcPi+0xfc>
    1d36:	83 2d       	mov	r24, r3
    1d38:	a8 2e       	mov	r10, r24
    1d3a:	b1 2c       	mov	r11, r1
    1d3c:	a5 01       	movw	r20, r10
    1d3e:	b8 01       	movw	r22, r16
    1d40:	ce 01       	movw	r24, r28
    1d42:	cb 96       	adiw	r24, 0x3b	; 59
    1d44:	0e 94 1b 25 	call	0x4a36	; 0x4a36 <strncpy>
    1d48:	eb e3       	ldi	r30, 0x3B	; 59
    1d4a:	f0 e0       	ldi	r31, 0x00	; 0
    1d4c:	ec 0f       	add	r30, r28
    1d4e:	fd 1f       	adc	r31, r29
    1d50:	ea 0d       	add	r30, r10
    1d52:	fb 1d       	adc	r31, r11
    1d54:	10 82       	st	Z, r1
    1d56:	c7 01       	movw	r24, r14
    1d58:	0e 94 eb 17 	call	0x2fd6	; 0x2fd6 <_ZN6SdFile5closeEv>
    1d5c:	21 e0       	ldi	r18, 0x01	; 1
    1d5e:	ae 01       	movw	r20, r28
    1d60:	45 5c       	subi	r20, 0xC5	; 197
    1d62:	5f 4f       	sbci	r21, 0xFF	; 255
    1d64:	b6 01       	movw	r22, r12
    1d66:	c7 01       	movw	r24, r14
    1d68:	0e 94 46 19 	call	0x328c	; 0x328c <_ZN6SdFile4openEPS_PKch>
    1d6c:	81 11       	cpse	r24, r1
    1d6e:	09 c0       	rjmp	.+18     	; 0x1d82 <_ZN5SDLib7SDClass12getParentDirEPKcPi+0x146>
    1d70:	f4 01       	movw	r30, r8
    1d72:	13 82       	std	Z+3, r1	; 0x03
    1d74:	12 82       	std	Z+2, r1	; 0x02
    1d76:	8b e3       	ldi	r24, 0x3B	; 59
    1d78:	91 e0       	ldi	r25, 0x01	; 1
    1d7a:	91 83       	std	Z+1, r25	; 0x01
    1d7c:	80 83       	st	Z, r24
    1d7e:	15 82       	std	Z+5, r1	; 0x05
    1d80:	65 c0       	rjmp	.+202    	; 0x1e4c <_ZN5SDLib7SDClass12getParentDirEPKcPi+0x210>
    1d82:	0a 0d       	add	r16, r10
    1d84:	1b 1d       	adc	r17, r11
    1d86:	c6 01       	movw	r24, r12
    1d88:	0e 94 eb 17 	call	0x2fd6	; 0x2fd6 <_ZN6SdFile5closeEv>
    1d8c:	9c 2d       	mov	r25, r12
    1d8e:	8d 2d       	mov	r24, r13
    1d90:	67 01       	movw	r12, r14
    1d92:	e9 2e       	mov	r14, r25
    1d94:	f8 2e       	mov	r15, r24
    1d96:	6f e2       	ldi	r22, 0x2F	; 47
    1d98:	70 e0       	ldi	r23, 0x00	; 0
    1d9a:	c8 01       	movw	r24, r16
    1d9c:	0e 94 10 25 	call	0x4a20	; 0x4a20 <strchr>
    1da0:	00 97       	sbiw	r24, 0x00	; 0
    1da2:	09 f0       	breq	.+2      	; 0x1da6 <_ZN5SDLib7SDClass12getParentDirEPKcPi+0x16a>
    1da4:	be cf       	rjmp	.-132    	; 0x1d22 <_ZN5SDLib7SDClass12getParentDirEPKcPi+0xe6>
    1da6:	06 19       	sub	r16, r6
    1da8:	17 09       	sbc	r17, r7
    1daa:	f2 01       	movw	r30, r4
    1dac:	11 83       	std	Z+1, r17	; 0x01
    1dae:	00 83       	st	Z, r16
    1db0:	f6 01       	movw	r30, r12
    1db2:	82 81       	ldd	r24, Z+2	; 0x02
    1db4:	93 81       	ldd	r25, Z+3	; 0x03
    1db6:	f4 01       	movw	r30, r8
    1db8:	93 83       	std	Z+3, r25	; 0x03
    1dba:	82 83       	std	Z+2, r24	; 0x02
    1dbc:	8b e3       	ldi	r24, 0x3B	; 59
    1dbe:	91 e0       	ldi	r25, 0x01	; 1
    1dc0:	91 83       	std	Z+1, r25	; 0x01
    1dc2:	80 83       	st	Z, r24
    1dc4:	f6 01       	movw	r30, r12
    1dc6:	84 81       	ldd	r24, Z+4	; 0x04
    1dc8:	f4 01       	movw	r30, r8
    1dca:	84 83       	std	Z+4, r24	; 0x04
    1dcc:	f6 01       	movw	r30, r12
    1dce:	85 81       	ldd	r24, Z+5	; 0x05
    1dd0:	f4 01       	movw	r30, r8
    1dd2:	85 83       	std	Z+5, r24	; 0x05
    1dd4:	f6 01       	movw	r30, r12
    1dd6:	86 81       	ldd	r24, Z+6	; 0x06
    1dd8:	97 81       	ldd	r25, Z+7	; 0x07
    1dda:	a0 85       	ldd	r26, Z+8	; 0x08
    1ddc:	b1 85       	ldd	r27, Z+9	; 0x09
    1dde:	f4 01       	movw	r30, r8
    1de0:	86 83       	std	Z+6, r24	; 0x06
    1de2:	97 83       	std	Z+7, r25	; 0x07
    1de4:	a0 87       	std	Z+8, r26	; 0x08
    1de6:	b1 87       	std	Z+9, r27	; 0x09
    1de8:	f6 01       	movw	r30, r12
    1dea:	82 85       	ldd	r24, Z+10	; 0x0a
    1dec:	93 85       	ldd	r25, Z+11	; 0x0b
    1dee:	a4 85       	ldd	r26, Z+12	; 0x0c
    1df0:	b5 85       	ldd	r27, Z+13	; 0x0d
    1df2:	f4 01       	movw	r30, r8
    1df4:	82 87       	std	Z+10, r24	; 0x0a
    1df6:	93 87       	std	Z+11, r25	; 0x0b
    1df8:	a4 87       	std	Z+12, r26	; 0x0c
    1dfa:	b5 87       	std	Z+13, r27	; 0x0d
    1dfc:	f6 01       	movw	r30, r12
    1dfe:	86 85       	ldd	r24, Z+14	; 0x0e
    1e00:	97 85       	ldd	r25, Z+15	; 0x0f
    1e02:	a0 89       	ldd	r26, Z+16	; 0x10
    1e04:	b1 89       	ldd	r27, Z+17	; 0x11
    1e06:	f4 01       	movw	r30, r8
    1e08:	86 87       	std	Z+14, r24	; 0x0e
    1e0a:	97 87       	std	Z+15, r25	; 0x0f
    1e0c:	a0 8b       	std	Z+16, r26	; 0x10
    1e0e:	b1 8b       	std	Z+17, r27	; 0x11
    1e10:	f6 01       	movw	r30, r12
    1e12:	82 89       	ldd	r24, Z+18	; 0x12
    1e14:	f4 01       	movw	r30, r8
    1e16:	82 8b       	std	Z+18, r24	; 0x12
    1e18:	f6 01       	movw	r30, r12
    1e1a:	83 89       	ldd	r24, Z+19	; 0x13
    1e1c:	94 89       	ldd	r25, Z+20	; 0x14
    1e1e:	a5 89       	ldd	r26, Z+21	; 0x15
    1e20:	b6 89       	ldd	r27, Z+22	; 0x16
    1e22:	f4 01       	movw	r30, r8
    1e24:	83 8b       	std	Z+19, r24	; 0x13
    1e26:	94 8b       	std	Z+20, r25	; 0x14
    1e28:	a5 8b       	std	Z+21, r26	; 0x15
    1e2a:	b6 8b       	std	Z+22, r27	; 0x16
    1e2c:	f6 01       	movw	r30, r12
    1e2e:	87 89       	ldd	r24, Z+23	; 0x17
    1e30:	90 8d       	ldd	r25, Z+24	; 0x18
    1e32:	a1 8d       	ldd	r26, Z+25	; 0x19
    1e34:	b2 8d       	ldd	r27, Z+26	; 0x1a
    1e36:	f4 01       	movw	r30, r8
    1e38:	87 8b       	std	Z+23, r24	; 0x17
    1e3a:	90 8f       	std	Z+24, r25	; 0x18
    1e3c:	a1 8f       	std	Z+25, r26	; 0x19
    1e3e:	b2 8f       	std	Z+26, r27	; 0x1a
    1e40:	f6 01       	movw	r30, r12
    1e42:	83 8d       	ldd	r24, Z+27	; 0x1b
    1e44:	94 8d       	ldd	r25, Z+28	; 0x1c
    1e46:	f4 01       	movw	r30, r8
    1e48:	94 8f       	std	Z+28, r25	; 0x1c
    1e4a:	83 8f       	std	Z+27, r24	; 0x1b
    1e4c:	c4 01       	movw	r24, r8
    1e4e:	c9 5b       	subi	r28, 0xB9	; 185
    1e50:	df 4f       	sbci	r29, 0xFF	; 255
    1e52:	0f b6       	in	r0, 0x3f	; 63
    1e54:	f8 94       	cli
    1e56:	de bf       	out	0x3e, r29	; 62
    1e58:	0f be       	out	0x3f, r0	; 63
    1e5a:	cd bf       	out	0x3d, r28	; 61
    1e5c:	df 91       	pop	r29
    1e5e:	cf 91       	pop	r28
    1e60:	1f 91       	pop	r17
    1e62:	0f 91       	pop	r16
    1e64:	ff 90       	pop	r15
    1e66:	ef 90       	pop	r14
    1e68:	df 90       	pop	r13
    1e6a:	cf 90       	pop	r12
    1e6c:	bf 90       	pop	r11
    1e6e:	af 90       	pop	r10
    1e70:	9f 90       	pop	r9
    1e72:	8f 90       	pop	r8
    1e74:	7f 90       	pop	r7
    1e76:	6f 90       	pop	r6
    1e78:	5f 90       	pop	r5
    1e7a:	4f 90       	pop	r4
    1e7c:	3f 90       	pop	r3
    1e7e:	08 95       	ret

00001e80 <_ZN5SDLib7SDClass4openEPKch>:
    1e80:	9f 92       	push	r9
    1e82:	af 92       	push	r10
    1e84:	bf 92       	push	r11
    1e86:	cf 92       	push	r12
    1e88:	df 92       	push	r13
    1e8a:	ef 92       	push	r14
    1e8c:	ff 92       	push	r15
    1e8e:	0f 93       	push	r16
    1e90:	1f 93       	push	r17
    1e92:	cf 93       	push	r28
    1e94:	df 93       	push	r29
    1e96:	cd b7       	in	r28, 0x3d	; 61
    1e98:	de b7       	in	r29, 0x3e	; 62
    1e9a:	c6 57       	subi	r28, 0x76	; 118
    1e9c:	d1 09       	sbc	r29, r1
    1e9e:	0f b6       	in	r0, 0x3f	; 63
    1ea0:	f8 94       	cli
    1ea2:	de bf       	out	0x3e, r29	; 62
    1ea4:	0f be       	out	0x3f, r0	; 63
    1ea6:	cd bf       	out	0x3d, r28	; 61
    1ea8:	7c 01       	movw	r14, r24
    1eaa:	5b 01       	movw	r10, r22
    1eac:	8a 01       	movw	r16, r20
    1eae:	92 2e       	mov	r9, r18
    1eb0:	9e 01       	movw	r18, r28
    1eb2:	2b 58       	subi	r18, 0x8B	; 139
    1eb4:	3f 4f       	sbci	r19, 0xFF	; 255
    1eb6:	ce 01       	movw	r24, r28
    1eb8:	88 5a       	subi	r24, 0xA8	; 168
    1eba:	9f 4f       	sbci	r25, 0xFF	; 255
    1ebc:	0e 94 1e 0e 	call	0x1c3c	; 0x1c3c <_ZN5SDLib7SDClass12getParentDirEPKcPi>
    1ec0:	e7 96       	adiw	r28, 0x37	; 55
    1ec2:	ce ac       	ldd	r12, Y+62	; 0x3e
    1ec4:	df ac       	ldd	r13, Y+63	; 0x3f
    1ec6:	e7 97       	sbiw	r28, 0x37	; 55
    1ec8:	c0 0e       	add	r12, r16
    1eca:	d1 1e       	adc	r13, r17
    1ecc:	f6 01       	movw	r30, r12
    1ece:	80 81       	ld	r24, Z
    1ed0:	81 11       	cpse	r24, r1
    1ed2:	57 c0       	rjmp	.+174    	; 0x1f82 <_ZN5SDLib7SDClass4openEPKch+0x102>
    1ed4:	6c 96       	adiw	r28, 0x1c	; 28
    1ed6:	8e ad       	ldd	r24, Y+62	; 0x3e
    1ed8:	9f ad       	ldd	r25, Y+63	; 0x3f
    1eda:	6c 97       	sbiw	r28, 0x1c	; 28
    1edc:	99 a3       	std	Y+33, r25	; 0x21
    1ede:	88 a3       	std	Y+32, r24	; 0x20
    1ee0:	8b e3       	ldi	r24, 0x3B	; 59
    1ee2:	91 e0       	ldi	r25, 0x01	; 1
    1ee4:	9f 8f       	std	Y+31, r25	; 0x1f
    1ee6:	8e 8f       	std	Y+30, r24	; 0x1e
    1ee8:	6d 96       	adiw	r28, 0x1d	; 29
    1eea:	8f ad       	ldd	r24, Y+63	; 0x3f
    1eec:	6d 97       	sbiw	r28, 0x1d	; 29
    1eee:	8a a3       	std	Y+34, r24	; 0x22
    1ef0:	6e 96       	adiw	r28, 0x1e	; 30
    1ef2:	8f ad       	ldd	r24, Y+63	; 0x3f
    1ef4:	6e 97       	sbiw	r28, 0x1e	; 30
    1ef6:	8b a3       	std	Y+35, r24	; 0x23
    1ef8:	a2 96       	adiw	r28, 0x22	; 34
    1efa:	8c ad       	ldd	r24, Y+60	; 0x3c
    1efc:	9d ad       	ldd	r25, Y+61	; 0x3d
    1efe:	ae ad       	ldd	r26, Y+62	; 0x3e
    1f00:	bf ad       	ldd	r27, Y+63	; 0x3f
    1f02:	a2 97       	sbiw	r28, 0x22	; 34
    1f04:	8c a3       	std	Y+36, r24	; 0x24
    1f06:	9d a3       	std	Y+37, r25	; 0x25
    1f08:	ae a3       	std	Y+38, r26	; 0x26
    1f0a:	bf a3       	std	Y+39, r27	; 0x27
    1f0c:	a6 96       	adiw	r28, 0x26	; 38
    1f0e:	8c ad       	ldd	r24, Y+60	; 0x3c
    1f10:	9d ad       	ldd	r25, Y+61	; 0x3d
    1f12:	ae ad       	ldd	r26, Y+62	; 0x3e
    1f14:	bf ad       	ldd	r27, Y+63	; 0x3f
    1f16:	a6 97       	sbiw	r28, 0x26	; 38
    1f18:	88 a7       	std	Y+40, r24	; 0x28
    1f1a:	99 a7       	std	Y+41, r25	; 0x29
    1f1c:	aa a7       	std	Y+42, r26	; 0x2a
    1f1e:	bb a7       	std	Y+43, r27	; 0x2b
    1f20:	aa 96       	adiw	r28, 0x2a	; 42
    1f22:	8c ad       	ldd	r24, Y+60	; 0x3c
    1f24:	9d ad       	ldd	r25, Y+61	; 0x3d
    1f26:	ae ad       	ldd	r26, Y+62	; 0x3e
    1f28:	bf ad       	ldd	r27, Y+63	; 0x3f
    1f2a:	aa 97       	sbiw	r28, 0x2a	; 42
    1f2c:	8c a7       	std	Y+44, r24	; 0x2c
    1f2e:	9d a7       	std	Y+45, r25	; 0x2d
    1f30:	ae a7       	std	Y+46, r26	; 0x2e
    1f32:	bf a7       	std	Y+47, r27	; 0x2f
    1f34:	ab 96       	adiw	r28, 0x2b	; 43
    1f36:	8f ad       	ldd	r24, Y+63	; 0x3f
    1f38:	ab 97       	sbiw	r28, 0x2b	; 43
    1f3a:	88 ab       	std	Y+48, r24	; 0x30
    1f3c:	af 96       	adiw	r28, 0x2f	; 47
    1f3e:	8c ad       	ldd	r24, Y+60	; 0x3c
    1f40:	9d ad       	ldd	r25, Y+61	; 0x3d
    1f42:	ae ad       	ldd	r26, Y+62	; 0x3e
    1f44:	bf ad       	ldd	r27, Y+63	; 0x3f
    1f46:	af 97       	sbiw	r28, 0x2f	; 47
    1f48:	89 ab       	std	Y+49, r24	; 0x31
    1f4a:	9a ab       	std	Y+50, r25	; 0x32
    1f4c:	ab ab       	std	Y+51, r26	; 0x33
    1f4e:	bc ab       	std	Y+52, r27	; 0x34
    1f50:	e3 96       	adiw	r28, 0x33	; 51
    1f52:	8c ad       	ldd	r24, Y+60	; 0x3c
    1f54:	9d ad       	ldd	r25, Y+61	; 0x3d
    1f56:	ae ad       	ldd	r26, Y+62	; 0x3e
    1f58:	bf ad       	ldd	r27, Y+63	; 0x3f
    1f5a:	e3 97       	sbiw	r28, 0x33	; 51
    1f5c:	8d ab       	std	Y+53, r24	; 0x35
    1f5e:	9e ab       	std	Y+54, r25	; 0x36
    1f60:	af ab       	std	Y+55, r26	; 0x37
    1f62:	b8 af       	std	Y+56, r27	; 0x38
    1f64:	e5 96       	adiw	r28, 0x35	; 53
    1f66:	8e ad       	ldd	r24, Y+62	; 0x3e
    1f68:	9f ad       	ldd	r25, Y+63	; 0x3f
    1f6a:	e5 97       	sbiw	r28, 0x35	; 53
    1f6c:	9a af       	std	Y+58, r25	; 0x3a
    1f6e:	89 af       	std	Y+57, r24	; 0x39
    1f70:	45 e3       	ldi	r20, 0x35	; 53
    1f72:	51 e0       	ldi	r21, 0x01	; 1
    1f74:	be 01       	movw	r22, r28
    1f76:	62 5e       	subi	r22, 0xE2	; 226
    1f78:	7f 4f       	sbci	r23, 0xFF	; 255
    1f7a:	c7 01       	movw	r24, r14
    1f7c:	0e 94 28 0d 	call	0x1a50	; 0x1a50 <_ZN5SDLib4FileC1E6SdFilePKc>
    1f80:	96 c0       	rjmp	.+300    	; 0x20ae <_ZN5SDLib7SDClass4openEPKch+0x22e>
    1f82:	1e ae       	std	Y+62, r1	; 0x3e
    1f84:	1d ae       	std	Y+61, r1	; 0x3d
    1f86:	8b e3       	ldi	r24, 0x3B	; 59
    1f88:	91 e0       	ldi	r25, 0x01	; 1
    1f8a:	9c af       	std	Y+60, r25	; 0x3c
    1f8c:	8b af       	std	Y+59, r24	; 0x3b
    1f8e:	21 96       	adiw	r28, 0x01	; 1
    1f90:	1f ae       	std	Y+63, r1	; 0x3f
    1f92:	21 97       	sbiw	r28, 0x01	; 1
    1f94:	6e 96       	adiw	r28, 0x1e	; 30
    1f96:	8f ad       	ldd	r24, Y+63	; 0x3f
    1f98:	6e 97       	sbiw	r28, 0x1e	; 30
    1f9a:	81 11       	cpse	r24, r1
    1f9c:	04 c0       	rjmp	.+8      	; 0x1fa6 <_ZN5SDLib7SDClass4openEPKch+0x126>
    1f9e:	c7 01       	movw	r24, r14
    1fa0:	0e 94 61 0d 	call	0x1ac2	; 0x1ac2 <_ZN5SDLib4FileC1Ev>
    1fa4:	84 c0       	rjmp	.+264    	; 0x20ae <_ZN5SDLib7SDClass4openEPKch+0x22e>
    1fa6:	82 50       	subi	r24, 0x02	; 2
    1fa8:	82 30       	cpi	r24, 0x02	; 2
    1faa:	78 f4       	brcc	.+30     	; 0x1fca <_ZN5SDLib7SDClass4openEPKch+0x14a>
    1fac:	b5 01       	movw	r22, r10
    1fae:	66 5d       	subi	r22, 0xD6	; 214
    1fb0:	7f 4f       	sbci	r23, 0xFF	; 255
    1fb2:	29 2d       	mov	r18, r9
    1fb4:	a6 01       	movw	r20, r12
    1fb6:	ce 01       	movw	r24, r28
    1fb8:	cb 96       	adiw	r24, 0x3b	; 59
    1fba:	0e 94 46 19 	call	0x328c	; 0x328c <_ZN6SdFile4openEPS_PKch>
    1fbe:	81 11       	cpse	r24, r1
    1fc0:	18 c0       	rjmp	.+48     	; 0x1ff2 <_ZN5SDLib7SDClass4openEPKch+0x172>
    1fc2:	c7 01       	movw	r24, r14
    1fc4:	0e 94 61 0d 	call	0x1ac2	; 0x1ac2 <_ZN5SDLib4FileC1Ev>
    1fc8:	72 c0       	rjmp	.+228    	; 0x20ae <_ZN5SDLib7SDClass4openEPKch+0x22e>
    1fca:	29 2d       	mov	r18, r9
    1fcc:	a6 01       	movw	r20, r12
    1fce:	be 01       	movw	r22, r28
    1fd0:	68 5a       	subi	r22, 0xA8	; 168
    1fd2:	7f 4f       	sbci	r23, 0xFF	; 255
    1fd4:	ce 01       	movw	r24, r28
    1fd6:	cb 96       	adiw	r24, 0x3b	; 59
    1fd8:	0e 94 46 19 	call	0x328c	; 0x328c <_ZN6SdFile4openEPS_PKch>
    1fdc:	81 11       	cpse	r24, r1
    1fde:	04 c0       	rjmp	.+8      	; 0x1fe8 <_ZN5SDLib7SDClass4openEPKch+0x168>
    1fe0:	c7 01       	movw	r24, r14
    1fe2:	0e 94 61 0d 	call	0x1ac2	; 0x1ac2 <_ZN5SDLib4FileC1Ev>
    1fe6:	63 c0       	rjmp	.+198    	; 0x20ae <_ZN5SDLib7SDClass4openEPKch+0x22e>
    1fe8:	ce 01       	movw	r24, r28
    1fea:	88 5a       	subi	r24, 0xA8	; 168
    1fec:	9f 4f       	sbci	r25, 0xFF	; 255
    1fee:	0e 94 eb 17 	call	0x2fd6	; 0x2fd6 <_ZN6SdFile5closeEv>
    1ff2:	89 2d       	mov	r24, r9
    1ff4:	86 70       	andi	r24, 0x06	; 6
    1ff6:	51 f0       	breq	.+20     	; 0x200c <_ZN5SDLib7SDClass4openEPKch+0x18c>
    1ff8:	62 96       	adiw	r28, 0x12	; 18
    1ffa:	4c ad       	ldd	r20, Y+60	; 0x3c
    1ffc:	5d ad       	ldd	r21, Y+61	; 0x3d
    1ffe:	6e ad       	ldd	r22, Y+62	; 0x3e
    2000:	7f ad       	ldd	r23, Y+63	; 0x3f
    2002:	62 97       	sbiw	r28, 0x12	; 18
    2004:	ce 01       	movw	r24, r28
    2006:	cb 96       	adiw	r24, 0x3b	; 59
    2008:	0e 94 f5 16 	call	0x2dea	; 0x2dea <_ZN6SdFile7seekSetEm>
    200c:	8d ad       	ldd	r24, Y+61	; 0x3d
    200e:	9e ad       	ldd	r25, Y+62	; 0x3e
    2010:	9c 83       	std	Y+4, r25	; 0x04
    2012:	8b 83       	std	Y+3, r24	; 0x03
    2014:	8b e3       	ldi	r24, 0x3B	; 59
    2016:	91 e0       	ldi	r25, 0x01	; 1
    2018:	9a 83       	std	Y+2, r25	; 0x02
    201a:	89 83       	std	Y+1, r24	; 0x01
    201c:	8f ad       	ldd	r24, Y+63	; 0x3f
    201e:	8d 83       	std	Y+5, r24	; 0x05
    2020:	21 96       	adiw	r28, 0x01	; 1
    2022:	8f ad       	ldd	r24, Y+63	; 0x3f
    2024:	21 97       	sbiw	r28, 0x01	; 1
    2026:	8e 83       	std	Y+6, r24	; 0x06
    2028:	25 96       	adiw	r28, 0x05	; 5
    202a:	8c ad       	ldd	r24, Y+60	; 0x3c
    202c:	9d ad       	ldd	r25, Y+61	; 0x3d
    202e:	ae ad       	ldd	r26, Y+62	; 0x3e
    2030:	bf ad       	ldd	r27, Y+63	; 0x3f
    2032:	25 97       	sbiw	r28, 0x05	; 5
    2034:	8f 83       	std	Y+7, r24	; 0x07
    2036:	98 87       	std	Y+8, r25	; 0x08
    2038:	a9 87       	std	Y+9, r26	; 0x09
    203a:	ba 87       	std	Y+10, r27	; 0x0a
    203c:	29 96       	adiw	r28, 0x09	; 9
    203e:	8c ad       	ldd	r24, Y+60	; 0x3c
    2040:	9d ad       	ldd	r25, Y+61	; 0x3d
    2042:	ae ad       	ldd	r26, Y+62	; 0x3e
    2044:	bf ad       	ldd	r27, Y+63	; 0x3f
    2046:	29 97       	sbiw	r28, 0x09	; 9
    2048:	8b 87       	std	Y+11, r24	; 0x0b
    204a:	9c 87       	std	Y+12, r25	; 0x0c
    204c:	ad 87       	std	Y+13, r26	; 0x0d
    204e:	be 87       	std	Y+14, r27	; 0x0e
    2050:	2d 96       	adiw	r28, 0x0d	; 13
    2052:	8c ad       	ldd	r24, Y+60	; 0x3c
    2054:	9d ad       	ldd	r25, Y+61	; 0x3d
    2056:	ae ad       	ldd	r26, Y+62	; 0x3e
    2058:	bf ad       	ldd	r27, Y+63	; 0x3f
    205a:	2d 97       	sbiw	r28, 0x0d	; 13
    205c:	8f 87       	std	Y+15, r24	; 0x0f
    205e:	98 8b       	std	Y+16, r25	; 0x10
    2060:	a9 8b       	std	Y+17, r26	; 0x11
    2062:	ba 8b       	std	Y+18, r27	; 0x12
    2064:	2e 96       	adiw	r28, 0x0e	; 14
    2066:	8f ad       	ldd	r24, Y+63	; 0x3f
    2068:	2e 97       	sbiw	r28, 0x0e	; 14
    206a:	8b 8b       	std	Y+19, r24	; 0x13
    206c:	62 96       	adiw	r28, 0x12	; 18
    206e:	8c ad       	ldd	r24, Y+60	; 0x3c
    2070:	9d ad       	ldd	r25, Y+61	; 0x3d
    2072:	ae ad       	ldd	r26, Y+62	; 0x3e
    2074:	bf ad       	ldd	r27, Y+63	; 0x3f
    2076:	62 97       	sbiw	r28, 0x12	; 18
    2078:	8c 8b       	std	Y+20, r24	; 0x14
    207a:	9d 8b       	std	Y+21, r25	; 0x15
    207c:	ae 8b       	std	Y+22, r26	; 0x16
    207e:	bf 8b       	std	Y+23, r27	; 0x17
    2080:	66 96       	adiw	r28, 0x16	; 22
    2082:	0c ad       	ldd	r16, Y+60	; 0x3c
    2084:	1d ad       	ldd	r17, Y+61	; 0x3d
    2086:	2e ad       	ldd	r18, Y+62	; 0x3e
    2088:	3f ad       	ldd	r19, Y+63	; 0x3f
    208a:	66 97       	sbiw	r28, 0x16	; 22
    208c:	08 8f       	std	Y+24, r16	; 0x18
    208e:	19 8f       	std	Y+25, r17	; 0x19
    2090:	2a 8f       	std	Y+26, r18	; 0x1a
    2092:	3b 8f       	std	Y+27, r19	; 0x1b
    2094:	68 96       	adiw	r28, 0x18	; 24
    2096:	8e ad       	ldd	r24, Y+62	; 0x3e
    2098:	9f ad       	ldd	r25, Y+63	; 0x3f
    209a:	68 97       	sbiw	r28, 0x18	; 24
    209c:	9d 8f       	std	Y+29, r25	; 0x1d
    209e:	8c 8f       	std	Y+28, r24	; 0x1c
    20a0:	a6 01       	movw	r20, r12
    20a2:	be 01       	movw	r22, r28
    20a4:	6f 5f       	subi	r22, 0xFF	; 255
    20a6:	7f 4f       	sbci	r23, 0xFF	; 255
    20a8:	c7 01       	movw	r24, r14
    20aa:	0e 94 28 0d 	call	0x1a50	; 0x1a50 <_ZN5SDLib4FileC1E6SdFilePKc>
    20ae:	c7 01       	movw	r24, r14
    20b0:	ca 58       	subi	r28, 0x8A	; 138
    20b2:	df 4f       	sbci	r29, 0xFF	; 255
    20b4:	0f b6       	in	r0, 0x3f	; 63
    20b6:	f8 94       	cli
    20b8:	de bf       	out	0x3e, r29	; 62
    20ba:	0f be       	out	0x3f, r0	; 63
    20bc:	cd bf       	out	0x3d, r28	; 61
    20be:	df 91       	pop	r29
    20c0:	cf 91       	pop	r28
    20c2:	1f 91       	pop	r17
    20c4:	0f 91       	pop	r16
    20c6:	ff 90       	pop	r15
    20c8:	ef 90       	pop	r14
    20ca:	df 90       	pop	r13
    20cc:	cf 90       	pop	r12
    20ce:	bf 90       	pop	r11
    20d0:	af 90       	pop	r10
    20d2:	9f 90       	pop	r9
    20d4:	08 95       	ret

000020d6 <_GLOBAL__sub_I__ZN5SDLib20getNextPathComponentEPcPjS0_>:
    20d6:	10 92 a1 02 	sts	0x02A1, r1
    20da:	10 92 a2 02 	sts	0x02A2, r1
    20de:	10 92 a5 02 	sts	0x02A5, r1
    20e2:	10 92 a7 02 	sts	0x02A7, r1
    20e6:	82 e0       	ldi	r24, 0x02	; 2
    20e8:	90 e0       	ldi	r25, 0x00	; 0
    20ea:	a0 e0       	ldi	r26, 0x00	; 0
    20ec:	b0 e0       	ldi	r27, 0x00	; 0
    20ee:	80 93 a8 02 	sts	0x02A8, r24
    20f2:	90 93 a9 02 	sts	0x02A9, r25
    20f6:	a0 93 aa 02 	sts	0x02AA, r26
    20fa:	b0 93 ab 02 	sts	0x02AB, r27
    20fe:	10 92 bf 02 	sts	0x02BF, r1
    2102:	10 92 c9 02 	sts	0x02C9, r1
    2106:	10 92 c8 02 	sts	0x02C8, r1
    210a:	8b e3       	ldi	r24, 0x3B	; 59
    210c:	91 e0       	ldi	r25, 0x01	; 1
    210e:	90 93 c7 02 	sts	0x02C7, r25
    2112:	80 93 c6 02 	sts	0x02C6, r24
    2116:	10 92 cb 02 	sts	0x02CB, r1
    211a:	08 95       	ret

0000211c <_ZL7spiSendh>:
    211c:	8e bd       	out	0x2e, r24	; 46
    211e:	00 00       	nop
    2120:	0d b4       	in	r0, 0x2d	; 45
    2122:	07 fe       	sbrs	r0, 7
    2124:	fd cf       	rjmp	.-6      	; 0x2120 <_ZL7spiSendh+0x4>
    2126:	8e b5       	in	r24, 0x2e	; 46
    2128:	08 95       	ret

0000212a <_ZL6spiRecv>:
    212a:	8f ef       	ldi	r24, 0xFF	; 255
    212c:	8e bd       	out	0x2e, r24	; 46
    212e:	00 00       	nop
    2130:	0d b4       	in	r0, 0x2d	; 45
    2132:	07 fe       	sbrs	r0, 7
    2134:	fd cf       	rjmp	.-6      	; 0x2130 <_ZL6spiRecv+0x6>
    2136:	8e b5       	in	r24, 0x2e	; 46
    2138:	08 95       	ret

0000213a <_ZN7Sd2Card14chipSelectHighEv>:
    213a:	61 e0       	ldi	r22, 0x01	; 1
    213c:	fc 01       	movw	r30, r24
    213e:	84 81       	ldd	r24, Z+4	; 0x04
    2140:	0e 94 5b 08 	call	0x10b6	; 0x10b6 <digitalWrite>
    2144:	80 91 e5 02 	lds	r24, 0x02E5
    2148:	88 23       	and	r24, r24
    214a:	a1 f0       	breq	.+40     	; 0x2174 <_ZN7Sd2Card14chipSelectHighEv+0x3a>
    214c:	10 92 e5 02 	sts	0x02E5, r1
    2150:	80 91 f3 04 	lds	r24, 0x04F3
    2154:	88 23       	and	r24, r24
    2156:	71 f0       	breq	.+28     	; 0x2174 <_ZN7Sd2Card14chipSelectHighEv+0x3a>
    2158:	9f b7       	in	r25, 0x3f	; 63
    215a:	f8 94       	cli
    215c:	80 91 f3 04 	lds	r24, 0x04F3
    2160:	81 30       	cpi	r24, 0x01	; 1
    2162:	29 f4       	brne	.+10     	; 0x216e <_ZN7Sd2Card14chipSelectHighEv+0x34>
    2164:	80 91 f1 04 	lds	r24, 0x04F1
    2168:	8d bb       	out	0x1d, r24	; 29
    216a:	9f bf       	out	0x3f, r25	; 63
    216c:	08 95       	ret
    216e:	80 91 f1 04 	lds	r24, 0x04F1
    2172:	8f bf       	out	0x3f, r24	; 63
    2174:	08 95       	ret

00002176 <_ZN7Sd2Card13chipSelectLowEv>:
    2176:	20 91 e5 02 	lds	r18, 0x02E5
    217a:	21 11       	cpse	r18, r1
    217c:	20 c0       	rjmp	.+64     	; 0x21be <_ZN7Sd2Card13chipSelectLowEv+0x48>
    217e:	21 e0       	ldi	r18, 0x01	; 1
    2180:	20 93 e5 02 	sts	0x02E5, r18
    2184:	e6 ee       	ldi	r30, 0xE6	; 230
    2186:	f2 e0       	ldi	r31, 0x02	; 2
    2188:	30 81       	ld	r19, Z
    218a:	21 81       	ldd	r18, Z+1	; 0x01
    218c:	40 91 f3 04 	lds	r20, 0x04F3
    2190:	44 23       	and	r20, r20
    2192:	99 f0       	breq	.+38     	; 0x21ba <_ZN7Sd2Card13chipSelectLowEv+0x44>
    2194:	4f b7       	in	r20, 0x3f	; 63
    2196:	f8 94       	cli
    2198:	50 91 f3 04 	lds	r21, 0x04F3
    219c:	51 30       	cpi	r21, 0x01	; 1
    219e:	59 f4       	brne	.+22     	; 0x21b6 <_ZN7Sd2Card13chipSelectLowEv+0x40>
    21a0:	5d b3       	in	r21, 0x1d	; 29
    21a2:	50 93 f1 04 	sts	0x04F1, r21
    21a6:	6d b3       	in	r22, 0x1d	; 29
    21a8:	50 91 f2 04 	lds	r21, 0x04F2
    21ac:	50 95       	com	r21
    21ae:	56 23       	and	r21, r22
    21b0:	5d bb       	out	0x1d, r21	; 29
    21b2:	4f bf       	out	0x3f, r20	; 63
    21b4:	02 c0       	rjmp	.+4      	; 0x21ba <_ZN7Sd2Card13chipSelectLowEv+0x44>
    21b6:	40 93 f1 04 	sts	0x04F1, r20
    21ba:	3c bd       	out	0x2c, r19	; 44
    21bc:	2d bd       	out	0x2d, r18	; 45
    21be:	60 e0       	ldi	r22, 0x00	; 0
    21c0:	fc 01       	movw	r30, r24
    21c2:	84 81       	ldd	r24, Z+4	; 0x04
    21c4:	0e 94 5b 08 	call	0x10b6	; 0x10b6 <digitalWrite>
    21c8:	08 95       	ret

000021ca <_ZN7Sd2Card7readEndEv>:
    21ca:	cf 93       	push	r28
    21cc:	df 93       	push	r29
    21ce:	ec 01       	movw	r28, r24
    21d0:	8e 81       	ldd	r24, Y+6	; 0x06
    21d2:	88 23       	and	r24, r24
    21d4:	c9 f0       	breq	.+50     	; 0x2208 <_ZN7Sd2Card7readEndEv+0x3e>
    21d6:	8f 81       	ldd	r24, Y+7	; 0x07
    21d8:	98 85       	ldd	r25, Y+8	; 0x08
    21da:	9c 01       	movw	r18, r24
    21dc:	2f 5f       	subi	r18, 0xFF	; 255
    21de:	3f 4f       	sbci	r19, 0xFF	; 255
    21e0:	38 87       	std	Y+8, r19	; 0x08
    21e2:	2f 83       	std	Y+7, r18	; 0x07
    21e4:	82 30       	cpi	r24, 0x02	; 2
    21e6:	92 40       	sbci	r25, 0x02	; 2
    21e8:	58 f4       	brcc	.+22     	; 0x2200 <_ZN7Sd2Card7readEndEv+0x36>
    21ea:	0e 94 95 10 	call	0x212a	; 0x212a <_ZL6spiRecv>
    21ee:	2f 81       	ldd	r18, Y+7	; 0x07
    21f0:	38 85       	ldd	r19, Y+8	; 0x08
    21f2:	c9 01       	movw	r24, r18
    21f4:	01 96       	adiw	r24, 0x01	; 1
    21f6:	98 87       	std	Y+8, r25	; 0x08
    21f8:	8f 83       	std	Y+7, r24	; 0x07
    21fa:	22 30       	cpi	r18, 0x02	; 2
    21fc:	32 40       	sbci	r19, 0x02	; 2
    21fe:	a8 f3       	brcs	.-22     	; 0x21ea <_ZN7Sd2Card7readEndEv+0x20>
    2200:	ce 01       	movw	r24, r28
    2202:	0e 94 9d 10 	call	0x213a	; 0x213a <_ZN7Sd2Card14chipSelectHighEv>
    2206:	1e 82       	std	Y+6, r1	; 0x06
    2208:	df 91       	pop	r29
    220a:	cf 91       	pop	r28
    220c:	08 95       	ret

0000220e <_ZN7Sd2Card10setSckRateEh>:
    220e:	67 30       	cpi	r22, 0x07	; 7
    2210:	28 f0       	brcs	.+10     	; 0x221c <_ZN7Sd2Card10setSckRateEh+0xe>
    2212:	26 e1       	ldi	r18, 0x16	; 22
    2214:	fc 01       	movw	r30, r24
    2216:	25 83       	std	Z+5, r18	; 0x05
    2218:	80 e0       	ldi	r24, 0x00	; 0
    221a:	08 95       	ret
    221c:	62 30       	cpi	r22, 0x02	; 2
    221e:	d1 f0       	breq	.+52     	; 0x2254 <_ZN7Sd2Card10setSckRateEh+0x46>
    2220:	28 f4       	brcc	.+10     	; 0x222c <_ZN7Sd2Card10setSckRateEh+0x1e>
    2222:	66 23       	and	r22, r22
    2224:	49 f0       	breq	.+18     	; 0x2238 <_ZN7Sd2Card10setSckRateEh+0x2a>
    2226:	61 30       	cpi	r22, 0x01	; 1
    2228:	71 f0       	breq	.+28     	; 0x2246 <_ZN7Sd2Card10setSckRateEh+0x38>
    222a:	30 c0       	rjmp	.+96     	; 0x228c <_ZN7Sd2Card10setSckRateEh+0x7e>
    222c:	64 30       	cpi	r22, 0x04	; 4
    222e:	01 f1       	breq	.+64     	; 0x2270 <_ZN7Sd2Card10setSckRateEh+0x62>
    2230:	c0 f0       	brcs	.+48     	; 0x2262 <_ZN7Sd2Card10setSckRateEh+0x54>
    2232:	65 30       	cpi	r22, 0x05	; 5
    2234:	21 f1       	breq	.+72     	; 0x227e <_ZN7Sd2Card10setSckRateEh+0x70>
    2236:	2a c0       	rjmp	.+84     	; 0x228c <_ZN7Sd2Card10setSckRateEh+0x7e>
    2238:	e6 ee       	ldi	r30, 0xE6	; 230
    223a:	f2 e0       	ldi	r31, 0x02	; 2
    223c:	80 e5       	ldi	r24, 0x50	; 80
    223e:	80 83       	st	Z, r24
    2240:	81 e0       	ldi	r24, 0x01	; 1
    2242:	81 83       	std	Z+1, r24	; 0x01
    2244:	08 95       	ret
    2246:	e6 ee       	ldi	r30, 0xE6	; 230
    2248:	f2 e0       	ldi	r31, 0x02	; 2
    224a:	80 e5       	ldi	r24, 0x50	; 80
    224c:	80 83       	st	Z, r24
    224e:	11 82       	std	Z+1, r1	; 0x01
    2250:	81 e0       	ldi	r24, 0x01	; 1
    2252:	08 95       	ret
    2254:	e6 ee       	ldi	r30, 0xE6	; 230
    2256:	f2 e0       	ldi	r31, 0x02	; 2
    2258:	81 e5       	ldi	r24, 0x51	; 81
    225a:	80 83       	st	Z, r24
    225c:	81 e0       	ldi	r24, 0x01	; 1
    225e:	81 83       	std	Z+1, r24	; 0x01
    2260:	08 95       	ret
    2262:	e6 ee       	ldi	r30, 0xE6	; 230
    2264:	f2 e0       	ldi	r31, 0x02	; 2
    2266:	81 e5       	ldi	r24, 0x51	; 81
    2268:	80 83       	st	Z, r24
    226a:	11 82       	std	Z+1, r1	; 0x01
    226c:	81 e0       	ldi	r24, 0x01	; 1
    226e:	08 95       	ret
    2270:	e6 ee       	ldi	r30, 0xE6	; 230
    2272:	f2 e0       	ldi	r31, 0x02	; 2
    2274:	82 e5       	ldi	r24, 0x52	; 82
    2276:	80 83       	st	Z, r24
    2278:	81 e0       	ldi	r24, 0x01	; 1
    227a:	81 83       	std	Z+1, r24	; 0x01
    227c:	08 95       	ret
    227e:	e6 ee       	ldi	r30, 0xE6	; 230
    2280:	f2 e0       	ldi	r31, 0x02	; 2
    2282:	82 e5       	ldi	r24, 0x52	; 82
    2284:	80 83       	st	Z, r24
    2286:	11 82       	std	Z+1, r1	; 0x01
    2288:	81 e0       	ldi	r24, 0x01	; 1
    228a:	08 95       	ret
    228c:	e6 ee       	ldi	r30, 0xE6	; 230
    228e:	f2 e0       	ldi	r31, 0x02	; 2
    2290:	83 e5       	ldi	r24, 0x53	; 83
    2292:	80 83       	st	Z, r24
    2294:	11 82       	std	Z+1, r1	; 0x01
    2296:	81 e0       	ldi	r24, 0x01	; 1
    2298:	08 95       	ret

0000229a <_ZN7Sd2Card11waitNotBusyEj>:
    229a:	0f 93       	push	r16
    229c:	1f 93       	push	r17
    229e:	cf 93       	push	r28
    22a0:	df 93       	push	r29
    22a2:	eb 01       	movw	r28, r22
    22a4:	0e 94 4c 07 	call	0xe98	; 0xe98 <millis>
    22a8:	8b 01       	movw	r16, r22
    22aa:	0e 94 95 10 	call	0x212a	; 0x212a <_ZL6spiRecv>
    22ae:	8f 3f       	cpi	r24, 0xFF	; 255
    22b0:	41 f0       	breq	.+16     	; 0x22c2 <_ZN7Sd2Card11waitNotBusyEj+0x28>
    22b2:	0e 94 4c 07 	call	0xe98	; 0xe98 <millis>
    22b6:	60 1b       	sub	r22, r16
    22b8:	71 0b       	sbc	r23, r17
    22ba:	6c 17       	cp	r22, r28
    22bc:	7d 07       	cpc	r23, r29
    22be:	a8 f3       	brcs	.-22     	; 0x22aa <_ZN7Sd2Card11waitNotBusyEj+0x10>
    22c0:	02 c0       	rjmp	.+4      	; 0x22c6 <_ZN7Sd2Card11waitNotBusyEj+0x2c>
    22c2:	81 e0       	ldi	r24, 0x01	; 1
    22c4:	01 c0       	rjmp	.+2      	; 0x22c8 <_ZN7Sd2Card11waitNotBusyEj+0x2e>
    22c6:	80 e0       	ldi	r24, 0x00	; 0
    22c8:	df 91       	pop	r29
    22ca:	cf 91       	pop	r28
    22cc:	1f 91       	pop	r17
    22ce:	0f 91       	pop	r16
    22d0:	08 95       	ret

000022d2 <_ZN7Sd2Card11cardCommandEhm>:
    22d2:	bf 92       	push	r11
    22d4:	cf 92       	push	r12
    22d6:	df 92       	push	r13
    22d8:	ef 92       	push	r14
    22da:	ff 92       	push	r15
    22dc:	0f 93       	push	r16
    22de:	1f 93       	push	r17
    22e0:	cf 93       	push	r28
    22e2:	df 93       	push	r29
    22e4:	8c 01       	movw	r16, r24
    22e6:	b6 2e       	mov	r11, r22
    22e8:	69 01       	movw	r12, r18
    22ea:	7a 01       	movw	r14, r20
    22ec:	0e 94 e5 10 	call	0x21ca	; 0x21ca <_ZN7Sd2Card7readEndEv>
    22f0:	c8 01       	movw	r24, r16
    22f2:	0e 94 bb 10 	call	0x2176	; 0x2176 <_ZN7Sd2Card13chipSelectLowEv>
    22f6:	6c e2       	ldi	r22, 0x2C	; 44
    22f8:	71 e0       	ldi	r23, 0x01	; 1
    22fa:	c8 01       	movw	r24, r16
    22fc:	0e 94 4d 11 	call	0x229a	; 0x229a <_ZN7Sd2Card11waitNotBusyEj>
    2300:	8b 2d       	mov	r24, r11
    2302:	80 64       	ori	r24, 0x40	; 64
    2304:	0e 94 8e 10 	call	0x211c	; 0x211c <_ZL7spiSendh>
    2308:	c8 e1       	ldi	r28, 0x18	; 24
    230a:	d0 e0       	ldi	r29, 0x00	; 0
    230c:	d7 01       	movw	r26, r14
    230e:	c6 01       	movw	r24, r12
    2310:	0c 2e       	mov	r0, r28
    2312:	04 c0       	rjmp	.+8      	; 0x231c <_ZN7Sd2Card11cardCommandEhm+0x4a>
    2314:	b6 95       	lsr	r27
    2316:	a7 95       	ror	r26
    2318:	97 95       	ror	r25
    231a:	87 95       	ror	r24
    231c:	0a 94       	dec	r0
    231e:	d2 f7       	brpl	.-12     	; 0x2314 <_ZN7Sd2Card11cardCommandEhm+0x42>
    2320:	0e 94 8e 10 	call	0x211c	; 0x211c <_ZL7spiSendh>
    2324:	28 97       	sbiw	r28, 0x08	; 8
    2326:	c8 3f       	cpi	r28, 0xF8	; 248
    2328:	8f ef       	ldi	r24, 0xFF	; 255
    232a:	d8 07       	cpc	r29, r24
    232c:	79 f7       	brne	.-34     	; 0x230c <_ZN7Sd2Card11cardCommandEhm+0x3a>
    232e:	bb 20       	and	r11, r11
    2330:	29 f0       	breq	.+10     	; 0x233c <_ZN7Sd2Card11cardCommandEhm+0x6a>
    2332:	e8 e0       	ldi	r30, 0x08	; 8
    2334:	be 16       	cp	r11, r30
    2336:	21 f0       	breq	.+8      	; 0x2340 <_ZN7Sd2Card11cardCommandEhm+0x6e>
    2338:	8f ef       	ldi	r24, 0xFF	; 255
    233a:	03 c0       	rjmp	.+6      	; 0x2342 <_ZN7Sd2Card11cardCommandEhm+0x70>
    233c:	85 e9       	ldi	r24, 0x95	; 149
    233e:	01 c0       	rjmp	.+2      	; 0x2342 <_ZN7Sd2Card11cardCommandEhm+0x70>
    2340:	87 e8       	ldi	r24, 0x87	; 135
    2342:	0e 94 8e 10 	call	0x211c	; 0x211c <_ZL7spiSendh>
    2346:	c0 e0       	ldi	r28, 0x00	; 0
    2348:	0e 94 95 10 	call	0x212a	; 0x212a <_ZL6spiRecv>
    234c:	f8 01       	movw	r30, r16
    234e:	82 87       	std	Z+10, r24	; 0x0a
    2350:	88 23       	and	r24, r24
    2352:	24 f4       	brge	.+8      	; 0x235c <_ZN7Sd2Card11cardCommandEhm+0x8a>
    2354:	cf 3f       	cpi	r28, 0xFF	; 255
    2356:	11 f0       	breq	.+4      	; 0x235c <_ZN7Sd2Card11cardCommandEhm+0x8a>
    2358:	cf 5f       	subi	r28, 0xFF	; 255
    235a:	f6 cf       	rjmp	.-20     	; 0x2348 <_ZN7Sd2Card11cardCommandEhm+0x76>
    235c:	df 91       	pop	r29
    235e:	cf 91       	pop	r28
    2360:	1f 91       	pop	r17
    2362:	0f 91       	pop	r16
    2364:	ff 90       	pop	r15
    2366:	ef 90       	pop	r14
    2368:	df 90       	pop	r13
    236a:	cf 90       	pop	r12
    236c:	bf 90       	pop	r11
    236e:	08 95       	ret

00002370 <_ZN7Sd2Card4initEhh>:
    2370:	af 92       	push	r10
    2372:	bf 92       	push	r11
    2374:	cf 92       	push	r12
    2376:	df 92       	push	r13
    2378:	ef 92       	push	r14
    237a:	ff 92       	push	r15
    237c:	0f 93       	push	r16
    237e:	1f 93       	push	r17
    2380:	cf 93       	push	r28
    2382:	df 93       	push	r29
    2384:	ec 01       	movw	r28, r24
    2386:	b6 2e       	mov	r11, r22
    2388:	1b 86       	std	Y+11, r1	; 0x0b
    238a:	19 86       	std	Y+9, r1	; 0x09
    238c:	1e 82       	std	Y+6, r1	; 0x06
    238e:	1d 82       	std	Y+5, r1	; 0x05
    2390:	4c 83       	std	Y+4, r20	; 0x04
    2392:	0e 94 4c 07 	call	0xe98	; 0xe98 <millis>
    2396:	8b 01       	movw	r16, r22
    2398:	61 e0       	ldi	r22, 0x01	; 1
    239a:	8c 81       	ldd	r24, Y+4	; 0x04
    239c:	0e 94 1d 08 	call	0x103a	; 0x103a <pinMode>
    23a0:	61 e0       	ldi	r22, 0x01	; 1
    23a2:	8c 81       	ldd	r24, Y+4	; 0x04
    23a4:	0e 94 5b 08 	call	0x10b6	; 0x10b6 <digitalWrite>
    23a8:	0e 94 a8 21 	call	0x4350	; 0x4350 <_ZN8SPIClass5beginEv>
    23ac:	e6 ee       	ldi	r30, 0xE6	; 230
    23ae:	f2 e0       	ldi	r31, 0x02	; 2
    23b0:	82 e5       	ldi	r24, 0x52	; 82
    23b2:	80 83       	st	Z, r24
    23b4:	11 82       	std	Z+1, r1	; 0x01
    23b6:	80 91 f3 04 	lds	r24, 0x04F3
    23ba:	88 23       	and	r24, r24
    23bc:	99 f0       	breq	.+38     	; 0x23e4 <_ZN7Sd2Card4initEhh+0x74>
    23be:	8f b7       	in	r24, 0x3f	; 63
    23c0:	f8 94       	cli
    23c2:	90 91 f3 04 	lds	r25, 0x04F3
    23c6:	91 30       	cpi	r25, 0x01	; 1
    23c8:	59 f4       	brne	.+22     	; 0x23e0 <_ZN7Sd2Card4initEhh+0x70>
    23ca:	9d b3       	in	r25, 0x1d	; 29
    23cc:	90 93 f1 04 	sts	0x04F1, r25
    23d0:	2d b3       	in	r18, 0x1d	; 29
    23d2:	90 91 f2 04 	lds	r25, 0x04F2
    23d6:	90 95       	com	r25
    23d8:	92 23       	and	r25, r18
    23da:	9d bb       	out	0x1d, r25	; 29
    23dc:	8f bf       	out	0x3f, r24	; 63
    23de:	02 c0       	rjmp	.+4      	; 0x23e4 <_ZN7Sd2Card4initEhh+0x74>
    23e0:	80 93 f1 04 	sts	0x04F1, r24
    23e4:	82 e5       	ldi	r24, 0x52	; 82
    23e6:	8c bd       	out	0x2c, r24	; 44
    23e8:	1d bc       	out	0x2d, r1	; 45
    23ea:	0f 2e       	mov	r0, r31
    23ec:	fa e0       	ldi	r31, 0x0A	; 10
    23ee:	af 2e       	mov	r10, r31
    23f0:	f0 2d       	mov	r31, r0
    23f2:	8f ef       	ldi	r24, 0xFF	; 255
    23f4:	0e 94 8e 10 	call	0x211c	; 0x211c <_ZL7spiSendh>
    23f8:	aa 94       	dec	r10
    23fa:	d9 f7       	brne	.-10     	; 0x23f2 <_ZN7Sd2Card4initEhh+0x82>
    23fc:	80 91 f3 04 	lds	r24, 0x04F3
    2400:	88 23       	and	r24, r24
    2402:	71 f0       	breq	.+28     	; 0x2420 <_ZN7Sd2Card4initEhh+0xb0>
    2404:	9f b7       	in	r25, 0x3f	; 63
    2406:	f8 94       	cli
    2408:	80 91 f3 04 	lds	r24, 0x04F3
    240c:	81 30       	cpi	r24, 0x01	; 1
    240e:	29 f4       	brne	.+10     	; 0x241a <_ZN7Sd2Card4initEhh+0xaa>
    2410:	80 91 f1 04 	lds	r24, 0x04F1
    2414:	8d bb       	out	0x1d, r24	; 29
    2416:	9f bf       	out	0x3f, r25	; 63
    2418:	03 c0       	rjmp	.+6      	; 0x2420 <_ZN7Sd2Card4initEhh+0xb0>
    241a:	80 91 f1 04 	lds	r24, 0x04F1
    241e:	8f bf       	out	0x3f, r24	; 63
    2420:	ce 01       	movw	r24, r28
    2422:	0e 94 bb 10 	call	0x2176	; 0x2176 <_ZN7Sd2Card13chipSelectLowEv>
    2426:	0a c0       	rjmp	.+20     	; 0x243c <_ZN7Sd2Card4initEhh+0xcc>
    2428:	0e 94 4c 07 	call	0xe98	; 0xe98 <millis>
    242c:	60 1b       	sub	r22, r16
    242e:	71 0b       	sbc	r23, r17
    2430:	61 3d       	cpi	r22, 0xD1	; 209
    2432:	77 40       	sbci	r23, 0x07	; 7
    2434:	18 f0       	brcs	.+6      	; 0x243c <_ZN7Sd2Card4initEhh+0xcc>
    2436:	81 e0       	ldi	r24, 0x01	; 1
    2438:	8d 83       	std	Y+5, r24	; 0x05
    243a:	6d c0       	rjmp	.+218    	; 0x2516 <_ZN7Sd2Card4initEhh+0x1a6>
    243c:	20 e0       	ldi	r18, 0x00	; 0
    243e:	30 e0       	ldi	r19, 0x00	; 0
    2440:	a9 01       	movw	r20, r18
    2442:	60 e0       	ldi	r22, 0x00	; 0
    2444:	ce 01       	movw	r24, r28
    2446:	0e 94 69 11 	call	0x22d2	; 0x22d2 <_ZN7Sd2Card11cardCommandEhm>
    244a:	8a 87       	std	Y+10, r24	; 0x0a
    244c:	81 30       	cpi	r24, 0x01	; 1
    244e:	61 f7       	brne	.-40     	; 0x2428 <_ZN7Sd2Card4initEhh+0xb8>
    2450:	2a ea       	ldi	r18, 0xAA	; 170
    2452:	31 e0       	ldi	r19, 0x01	; 1
    2454:	40 e0       	ldi	r20, 0x00	; 0
    2456:	50 e0       	ldi	r21, 0x00	; 0
    2458:	68 e0       	ldi	r22, 0x08	; 8
    245a:	ce 01       	movw	r24, r28
    245c:	0e 94 69 11 	call	0x22d2	; 0x22d2 <_ZN7Sd2Card11cardCommandEhm>
    2460:	82 ff       	sbrs	r24, 2
    2462:	03 c0       	rjmp	.+6      	; 0x246a <_ZN7Sd2Card4initEhh+0xfa>
    2464:	81 e0       	ldi	r24, 0x01	; 1
    2466:	8b 87       	std	Y+11, r24	; 0x0b
    2468:	0f c0       	rjmp	.+30     	; 0x2488 <_ZN7Sd2Card4initEhh+0x118>
    246a:	68 94       	set
    246c:	ff 24       	eor	r15, r15
    246e:	f2 f8       	bld	r15, 2
    2470:	0e 94 95 10 	call	0x212a	; 0x212a <_ZL6spiRecv>
    2474:	8a 87       	std	Y+10, r24	; 0x0a
    2476:	fa 94       	dec	r15
    2478:	d9 f7       	brne	.-10     	; 0x2470 <_ZN7Sd2Card4initEhh+0x100>
    247a:	8a 3a       	cpi	r24, 0xAA	; 170
    247c:	19 f0       	breq	.+6      	; 0x2484 <_ZN7Sd2Card4initEhh+0x114>
    247e:	82 e0       	ldi	r24, 0x02	; 2
    2480:	8d 83       	std	Y+5, r24	; 0x05
    2482:	49 c0       	rjmp	.+146    	; 0x2516 <_ZN7Sd2Card4initEhh+0x1a6>
    2484:	82 e0       	ldi	r24, 0x02	; 2
    2486:	8b 87       	std	Y+11, r24	; 0x0b
    2488:	8b 85       	ldd	r24, Y+11	; 0x0b
    248a:	82 30       	cpi	r24, 0x02	; 2
    248c:	31 f4       	brne	.+12     	; 0x249a <_ZN7Sd2Card4initEhh+0x12a>
    248e:	c1 2c       	mov	r12, r1
    2490:	d1 2c       	mov	r13, r1
    2492:	76 01       	movw	r14, r12
    2494:	68 94       	set
    2496:	f6 f8       	bld	r15, 6
    2498:	0e c0       	rjmp	.+28     	; 0x24b6 <_ZN7Sd2Card4initEhh+0x146>
    249a:	c1 2c       	mov	r12, r1
    249c:	d1 2c       	mov	r13, r1
    249e:	76 01       	movw	r14, r12
    24a0:	0a c0       	rjmp	.+20     	; 0x24b6 <_ZN7Sd2Card4initEhh+0x146>
    24a2:	0e 94 4c 07 	call	0xe98	; 0xe98 <millis>
    24a6:	60 1b       	sub	r22, r16
    24a8:	71 0b       	sbc	r23, r17
    24aa:	61 3d       	cpi	r22, 0xD1	; 209
    24ac:	77 40       	sbci	r23, 0x07	; 7
    24ae:	18 f0       	brcs	.+6      	; 0x24b6 <_ZN7Sd2Card4initEhh+0x146>
    24b0:	88 e0       	ldi	r24, 0x08	; 8
    24b2:	8d 83       	std	Y+5, r24	; 0x05
    24b4:	30 c0       	rjmp	.+96     	; 0x2516 <_ZN7Sd2Card4initEhh+0x1a6>
    24b6:	20 e0       	ldi	r18, 0x00	; 0
    24b8:	30 e0       	ldi	r19, 0x00	; 0
    24ba:	a9 01       	movw	r20, r18
    24bc:	67 e3       	ldi	r22, 0x37	; 55
    24be:	ce 01       	movw	r24, r28
    24c0:	0e 94 69 11 	call	0x22d2	; 0x22d2 <_ZN7Sd2Card11cardCommandEhm>
    24c4:	a7 01       	movw	r20, r14
    24c6:	96 01       	movw	r18, r12
    24c8:	69 e2       	ldi	r22, 0x29	; 41
    24ca:	ce 01       	movw	r24, r28
    24cc:	0e 94 69 11 	call	0x22d2	; 0x22d2 <_ZN7Sd2Card11cardCommandEhm>
    24d0:	8a 87       	std	Y+10, r24	; 0x0a
    24d2:	81 11       	cpse	r24, r1
    24d4:	e6 cf       	rjmp	.-52     	; 0x24a2 <_ZN7Sd2Card4initEhh+0x132>
    24d6:	8b 85       	ldd	r24, Y+11	; 0x0b
    24d8:	82 30       	cpi	r24, 0x02	; 2
    24da:	a1 f4       	brne	.+40     	; 0x2504 <_ZN7Sd2Card4initEhh+0x194>
    24dc:	20 e0       	ldi	r18, 0x00	; 0
    24de:	30 e0       	ldi	r19, 0x00	; 0
    24e0:	a9 01       	movw	r20, r18
    24e2:	6a e3       	ldi	r22, 0x3A	; 58
    24e4:	ce 01       	movw	r24, r28
    24e6:	0e 94 69 11 	call	0x22d2	; 0x22d2 <_ZN7Sd2Card11cardCommandEhm>
    24ea:	88 23       	and	r24, r24
    24ec:	19 f0       	breq	.+6      	; 0x24f4 <_ZN7Sd2Card4initEhh+0x184>
    24ee:	86 e0       	ldi	r24, 0x06	; 6
    24f0:	8d 83       	std	Y+5, r24	; 0x05
    24f2:	11 c0       	rjmp	.+34     	; 0x2516 <_ZN7Sd2Card4initEhh+0x1a6>
    24f4:	0e 94 95 10 	call	0x212a	; 0x212a <_ZL6spiRecv>
    24f8:	80 7c       	andi	r24, 0xC0	; 192
    24fa:	80 3c       	cpi	r24, 0xC0	; 192
    24fc:	81 f4       	brne	.+32     	; 0x251e <_ZN7Sd2Card4initEhh+0x1ae>
    24fe:	83 e0       	ldi	r24, 0x03	; 3
    2500:	8b 87       	std	Y+11, r24	; 0x0b
    2502:	0d c0       	rjmp	.+26     	; 0x251e <_ZN7Sd2Card4initEhh+0x1ae>
    2504:	ce 01       	movw	r24, r28
    2506:	0e 94 9d 10 	call	0x213a	; 0x213a <_ZN7Sd2Card14chipSelectHighEv>
    250a:	6b 2d       	mov	r22, r11
    250c:	ce 01       	movw	r24, r28
    250e:	0e 94 07 11 	call	0x220e	; 0x220e <_ZN7Sd2Card10setSckRateEh>
    2512:	a8 2e       	mov	r10, r24
    2514:	0b c0       	rjmp	.+22     	; 0x252c <_ZN7Sd2Card4initEhh+0x1bc>
    2516:	ce 01       	movw	r24, r28
    2518:	0e 94 9d 10 	call	0x213a	; 0x213a <_ZN7Sd2Card14chipSelectHighEv>
    251c:	07 c0       	rjmp	.+14     	; 0x252c <_ZN7Sd2Card4initEhh+0x1bc>
    251e:	0e 94 95 10 	call	0x212a	; 0x212a <_ZL6spiRecv>
    2522:	0e 94 95 10 	call	0x212a	; 0x212a <_ZL6spiRecv>
    2526:	0e 94 95 10 	call	0x212a	; 0x212a <_ZL6spiRecv>
    252a:	ec cf       	rjmp	.-40     	; 0x2504 <_ZN7Sd2Card4initEhh+0x194>
    252c:	8a 2d       	mov	r24, r10
    252e:	df 91       	pop	r29
    2530:	cf 91       	pop	r28
    2532:	1f 91       	pop	r17
    2534:	0f 91       	pop	r16
    2536:	ff 90       	pop	r15
    2538:	ef 90       	pop	r14
    253a:	df 90       	pop	r13
    253c:	cf 90       	pop	r12
    253e:	bf 90       	pop	r11
    2540:	af 90       	pop	r10
    2542:	08 95       	ret

00002544 <_ZN7Sd2Card14waitStartBlockEv>:
    2544:	0f 93       	push	r16
    2546:	1f 93       	push	r17
    2548:	cf 93       	push	r28
    254a:	df 93       	push	r29
    254c:	ec 01       	movw	r28, r24
    254e:	0e 94 4c 07 	call	0xe98	; 0xe98 <millis>
    2552:	8b 01       	movw	r16, r22
    2554:	0a c0       	rjmp	.+20     	; 0x256a <_ZN7Sd2Card14waitStartBlockEv+0x26>
    2556:	0e 94 4c 07 	call	0xe98	; 0xe98 <millis>
    255a:	60 1b       	sub	r22, r16
    255c:	71 0b       	sbc	r23, r17
    255e:	6d 32       	cpi	r22, 0x2D	; 45
    2560:	71 40       	sbci	r23, 0x01	; 1
    2562:	18 f0       	brcs	.+6      	; 0x256a <_ZN7Sd2Card14waitStartBlockEv+0x26>
    2564:	8f e0       	ldi	r24, 0x0F	; 15
    2566:	8d 83       	std	Y+5, r24	; 0x05
    2568:	09 c0       	rjmp	.+18     	; 0x257c <_ZN7Sd2Card14waitStartBlockEv+0x38>
    256a:	0e 94 95 10 	call	0x212a	; 0x212a <_ZL6spiRecv>
    256e:	8a 87       	std	Y+10, r24	; 0x0a
    2570:	8f 3f       	cpi	r24, 0xFF	; 255
    2572:	89 f3       	breq	.-30     	; 0x2556 <_ZN7Sd2Card14waitStartBlockEv+0x12>
    2574:	8e 3f       	cpi	r24, 0xFE	; 254
    2576:	39 f0       	breq	.+14     	; 0x2586 <_ZN7Sd2Card14waitStartBlockEv+0x42>
    2578:	8d e0       	ldi	r24, 0x0D	; 13
    257a:	8d 83       	std	Y+5, r24	; 0x05
    257c:	ce 01       	movw	r24, r28
    257e:	0e 94 9d 10 	call	0x213a	; 0x213a <_ZN7Sd2Card14chipSelectHighEv>
    2582:	80 e0       	ldi	r24, 0x00	; 0
    2584:	01 c0       	rjmp	.+2      	; 0x2588 <_ZN7Sd2Card14waitStartBlockEv+0x44>
    2586:	81 e0       	ldi	r24, 0x01	; 1
    2588:	df 91       	pop	r29
    258a:	cf 91       	pop	r28
    258c:	1f 91       	pop	r17
    258e:	0f 91       	pop	r16
    2590:	08 95       	ret

00002592 <_ZN7Sd2Card8readDataEmjjPh>:
    2592:	cf 92       	push	r12
    2594:	df 92       	push	r13
    2596:	ef 92       	push	r14
    2598:	ff 92       	push	r15
    259a:	0f 93       	push	r16
    259c:	1f 93       	push	r17
    259e:	cf 93       	push	r28
    25a0:	df 93       	push	r29
    25a2:	ec 01       	movw	r28, r24
    25a4:	69 01       	movw	r12, r18
    25a6:	01 15       	cp	r16, r1
    25a8:	11 05       	cpc	r17, r1
    25aa:	09 f4       	brne	.+2      	; 0x25ae <_ZN7Sd2Card8readDataEmjjPh+0x1c>
    25ac:	6e c0       	rjmp	.+220    	; 0x268a <_ZN7Sd2Card8readDataEmjjPh+0xf8>
    25ae:	c8 01       	movw	r24, r16
    25b0:	82 0f       	add	r24, r18
    25b2:	93 1f       	adc	r25, r19
    25b4:	81 30       	cpi	r24, 0x01	; 1
    25b6:	92 40       	sbci	r25, 0x02	; 2
    25b8:	08 f0       	brcs	.+2      	; 0x25bc <_ZN7Sd2Card8readDataEmjjPh+0x2a>
    25ba:	62 c0       	rjmp	.+196    	; 0x2680 <_ZN7Sd2Card8readDataEmjjPh+0xee>
    25bc:	8e 81       	ldd	r24, Y+6	; 0x06
    25be:	88 23       	and	r24, r24
    25c0:	71 f0       	breq	.+28     	; 0x25de <_ZN7Sd2Card8readDataEmjjPh+0x4c>
    25c2:	88 81       	ld	r24, Y
    25c4:	99 81       	ldd	r25, Y+1	; 0x01
    25c6:	aa 81       	ldd	r26, Y+2	; 0x02
    25c8:	bb 81       	ldd	r27, Y+3	; 0x03
    25ca:	84 17       	cp	r24, r20
    25cc:	95 07       	cpc	r25, r21
    25ce:	a6 07       	cpc	r26, r22
    25d0:	b7 07       	cpc	r27, r23
    25d2:	29 f4       	brne	.+10     	; 0x25de <_ZN7Sd2Card8readDataEmjjPh+0x4c>
    25d4:	8f 81       	ldd	r24, Y+7	; 0x07
    25d6:	98 85       	ldd	r25, Y+8	; 0x08
    25d8:	c8 16       	cp	r12, r24
    25da:	d9 06       	cpc	r13, r25
    25dc:	20 f5       	brcc	.+72     	; 0x2626 <_ZN7Sd2Card8readDataEmjjPh+0x94>
    25de:	48 83       	st	Y, r20
    25e0:	59 83       	std	Y+1, r21	; 0x01
    25e2:	6a 83       	std	Y+2, r22	; 0x02
    25e4:	7b 83       	std	Y+3, r23	; 0x03
    25e6:	8b 85       	ldd	r24, Y+11	; 0x0b
    25e8:	83 30       	cpi	r24, 0x03	; 3
    25ea:	49 f0       	breq	.+18     	; 0x25fe <_ZN7Sd2Card8readDataEmjjPh+0x6c>
    25ec:	03 2e       	mov	r0, r19
    25ee:	39 e0       	ldi	r19, 0x09	; 9
    25f0:	44 0f       	add	r20, r20
    25f2:	55 1f       	adc	r21, r21
    25f4:	66 1f       	adc	r22, r22
    25f6:	77 1f       	adc	r23, r23
    25f8:	3a 95       	dec	r19
    25fa:	d1 f7       	brne	.-12     	; 0x25f0 <_ZN7Sd2Card8readDataEmjjPh+0x5e>
    25fc:	30 2d       	mov	r19, r0
    25fe:	9a 01       	movw	r18, r20
    2600:	ab 01       	movw	r20, r22
    2602:	61 e1       	ldi	r22, 0x11	; 17
    2604:	ce 01       	movw	r24, r28
    2606:	0e 94 69 11 	call	0x22d2	; 0x22d2 <_ZN7Sd2Card11cardCommandEhm>
    260a:	88 23       	and	r24, r24
    260c:	19 f0       	breq	.+6      	; 0x2614 <_ZN7Sd2Card8readDataEmjjPh+0x82>
    260e:	83 e0       	ldi	r24, 0x03	; 3
    2610:	8d 83       	std	Y+5, r24	; 0x05
    2612:	36 c0       	rjmp	.+108    	; 0x2680 <_ZN7Sd2Card8readDataEmjjPh+0xee>
    2614:	ce 01       	movw	r24, r28
    2616:	0e 94 a2 12 	call	0x2544	; 0x2544 <_ZN7Sd2Card14waitStartBlockEv>
    261a:	88 23       	and	r24, r24
    261c:	89 f1       	breq	.+98     	; 0x2680 <_ZN7Sd2Card8readDataEmjjPh+0xee>
    261e:	18 86       	std	Y+8, r1	; 0x08
    2620:	1f 82       	std	Y+7, r1	; 0x07
    2622:	81 e0       	ldi	r24, 0x01	; 1
    2624:	8e 83       	std	Y+6, r24	; 0x06
    2626:	8f 81       	ldd	r24, Y+7	; 0x07
    2628:	98 85       	ldd	r25, Y+8	; 0x08
    262a:	8c 15       	cp	r24, r12
    262c:	9d 05       	cpc	r25, r13
    262e:	20 f0       	brcs	.+8      	; 0x2638 <_ZN7Sd2Card8readDataEmjjPh+0xa6>
    2630:	67 01       	movw	r12, r14
    2632:	e0 0e       	add	r14, r16
    2634:	f1 1e       	adc	r15, r17
    2636:	0b c0       	rjmp	.+22     	; 0x264e <_ZN7Sd2Card8readDataEmjjPh+0xbc>
    2638:	0e 94 95 10 	call	0x212a	; 0x212a <_ZL6spiRecv>
    263c:	8f 81       	ldd	r24, Y+7	; 0x07
    263e:	98 85       	ldd	r25, Y+8	; 0x08
    2640:	01 96       	adiw	r24, 0x01	; 1
    2642:	98 87       	std	Y+8, r25	; 0x08
    2644:	8f 83       	std	Y+7, r24	; 0x07
    2646:	8c 15       	cp	r24, r12
    2648:	9d 05       	cpc	r25, r13
    264a:	b0 f3       	brcs	.-20     	; 0x2638 <_ZN7Sd2Card8readDataEmjjPh+0xa6>
    264c:	f1 cf       	rjmp	.-30     	; 0x2630 <_ZN7Sd2Card8readDataEmjjPh+0x9e>
    264e:	0e 94 95 10 	call	0x212a	; 0x212a <_ZL6spiRecv>
    2652:	f6 01       	movw	r30, r12
    2654:	81 93       	st	Z+, r24
    2656:	6f 01       	movw	r12, r30
    2658:	ee 15       	cp	r30, r14
    265a:	ff 05       	cpc	r31, r15
    265c:	c1 f7       	brne	.-16     	; 0x264e <_ZN7Sd2Card8readDataEmjjPh+0xbc>
    265e:	8f 81       	ldd	r24, Y+7	; 0x07
    2660:	98 85       	ldd	r25, Y+8	; 0x08
    2662:	08 0f       	add	r16, r24
    2664:	19 1f       	adc	r17, r25
    2666:	18 87       	std	Y+8, r17	; 0x08
    2668:	0f 83       	std	Y+7, r16	; 0x07
    266a:	89 85       	ldd	r24, Y+9	; 0x09
    266c:	88 23       	and	r24, r24
    266e:	19 f0       	breq	.+6      	; 0x2676 <_ZN7Sd2Card8readDataEmjjPh+0xe4>
    2670:	01 15       	cp	r16, r1
    2672:	12 40       	sbci	r17, 0x02	; 2
    2674:	60 f0       	brcs	.+24     	; 0x268e <_ZN7Sd2Card8readDataEmjjPh+0xfc>
    2676:	ce 01       	movw	r24, r28
    2678:	0e 94 e5 10 	call	0x21ca	; 0x21ca <_ZN7Sd2Card7readEndEv>
    267c:	81 e0       	ldi	r24, 0x01	; 1
    267e:	08 c0       	rjmp	.+16     	; 0x2690 <_ZN7Sd2Card8readDataEmjjPh+0xfe>
    2680:	ce 01       	movw	r24, r28
    2682:	0e 94 9d 10 	call	0x213a	; 0x213a <_ZN7Sd2Card14chipSelectHighEv>
    2686:	80 e0       	ldi	r24, 0x00	; 0
    2688:	03 c0       	rjmp	.+6      	; 0x2690 <_ZN7Sd2Card8readDataEmjjPh+0xfe>
    268a:	81 e0       	ldi	r24, 0x01	; 1
    268c:	01 c0       	rjmp	.+2      	; 0x2690 <_ZN7Sd2Card8readDataEmjjPh+0xfe>
    268e:	81 e0       	ldi	r24, 0x01	; 1
    2690:	df 91       	pop	r29
    2692:	cf 91       	pop	r28
    2694:	1f 91       	pop	r17
    2696:	0f 91       	pop	r16
    2698:	ff 90       	pop	r15
    269a:	ef 90       	pop	r14
    269c:	df 90       	pop	r13
    269e:	cf 90       	pop	r12
    26a0:	08 95       	ret

000026a2 <_ZN7Sd2Card9readBlockEmPh>:
    26a2:	ef 92       	push	r14
    26a4:	ff 92       	push	r15
    26a6:	0f 93       	push	r16
    26a8:	1f 93       	push	r17
    26aa:	79 01       	movw	r14, r18
    26ac:	00 e0       	ldi	r16, 0x00	; 0
    26ae:	12 e0       	ldi	r17, 0x02	; 2
    26b0:	20 e0       	ldi	r18, 0x00	; 0
    26b2:	30 e0       	ldi	r19, 0x00	; 0
    26b4:	0e 94 c9 12 	call	0x2592	; 0x2592 <_ZN7Sd2Card8readDataEmjjPh>
    26b8:	1f 91       	pop	r17
    26ba:	0f 91       	pop	r16
    26bc:	ff 90       	pop	r15
    26be:	ef 90       	pop	r14
    26c0:	08 95       	ret

000026c2 <_ZN7Sd2Card9writeDataEhPKh>:
    26c2:	ef 92       	push	r14
    26c4:	ff 92       	push	r15
    26c6:	0f 93       	push	r16
    26c8:	1f 93       	push	r17
    26ca:	cf 93       	push	r28
    26cc:	df 93       	push	r29
    26ce:	7c 01       	movw	r14, r24
    26d0:	86 2f       	mov	r24, r22
    26d2:	d4 2f       	mov	r29, r20
    26d4:	c5 2f       	mov	r28, r21
    26d6:	0e 94 8e 10 	call	0x211c	; 0x211c <_ZL7spiSendh>
    26da:	0d 2f       	mov	r16, r29
    26dc:	1c 2f       	mov	r17, r28
    26de:	c0 e0       	ldi	r28, 0x00	; 0
    26e0:	d0 e0       	ldi	r29, 0x00	; 0
    26e2:	f8 01       	movw	r30, r16
    26e4:	81 91       	ld	r24, Z+
    26e6:	8f 01       	movw	r16, r30
    26e8:	0e 94 8e 10 	call	0x211c	; 0x211c <_ZL7spiSendh>
    26ec:	21 96       	adiw	r28, 0x01	; 1
    26ee:	c1 15       	cp	r28, r1
    26f0:	f2 e0       	ldi	r31, 0x02	; 2
    26f2:	df 07       	cpc	r29, r31
    26f4:	b1 f7       	brne	.-20     	; 0x26e2 <_ZN7Sd2Card9writeDataEhPKh+0x20>
    26f6:	8f ef       	ldi	r24, 0xFF	; 255
    26f8:	0e 94 8e 10 	call	0x211c	; 0x211c <_ZL7spiSendh>
    26fc:	8f ef       	ldi	r24, 0xFF	; 255
    26fe:	0e 94 8e 10 	call	0x211c	; 0x211c <_ZL7spiSendh>
    2702:	0e 94 95 10 	call	0x212a	; 0x212a <_ZL6spiRecv>
    2706:	f7 01       	movw	r30, r14
    2708:	82 87       	std	Z+10, r24	; 0x0a
    270a:	8f 71       	andi	r24, 0x1F	; 31
    270c:	85 30       	cpi	r24, 0x05	; 5
    270e:	39 f0       	breq	.+14     	; 0x271e <_ZN7Sd2Card9writeDataEhPKh+0x5c>
    2710:	81 e1       	ldi	r24, 0x11	; 17
    2712:	85 83       	std	Z+5, r24	; 0x05
    2714:	c7 01       	movw	r24, r14
    2716:	0e 94 9d 10 	call	0x213a	; 0x213a <_ZN7Sd2Card14chipSelectHighEv>
    271a:	80 e0       	ldi	r24, 0x00	; 0
    271c:	01 c0       	rjmp	.+2      	; 0x2720 <_ZN7Sd2Card9writeDataEhPKh+0x5e>
    271e:	81 e0       	ldi	r24, 0x01	; 1
    2720:	df 91       	pop	r29
    2722:	cf 91       	pop	r28
    2724:	1f 91       	pop	r17
    2726:	0f 91       	pop	r16
    2728:	ff 90       	pop	r15
    272a:	ef 90       	pop	r14
    272c:	08 95       	ret

0000272e <_ZN7Sd2Card10writeBlockEmPKh>:
    272e:	0f 93       	push	r16
    2730:	1f 93       	push	r17
    2732:	cf 93       	push	r28
    2734:	df 93       	push	r29
    2736:	ec 01       	movw	r28, r24
    2738:	89 01       	movw	r16, r18
    273a:	41 15       	cp	r20, r1
    273c:	51 05       	cpc	r21, r1
    273e:	61 05       	cpc	r22, r1
    2740:	71 05       	cpc	r23, r1
    2742:	19 f4       	brne	.+6      	; 0x274a <_ZN7Sd2Card10writeBlockEmPKh+0x1c>
    2744:	82 e1       	ldi	r24, 0x12	; 18
    2746:	8d 83       	std	Y+5, r24	; 0x05
    2748:	3d c0       	rjmp	.+122    	; 0x27c4 <_ZN7Sd2Card10writeBlockEmPKh+0x96>
    274a:	8b 85       	ldd	r24, Y+11	; 0x0b
    274c:	83 30       	cpi	r24, 0x03	; 3
    274e:	49 f0       	breq	.+18     	; 0x2762 <_ZN7Sd2Card10writeBlockEmPKh+0x34>
    2750:	03 2e       	mov	r0, r19
    2752:	39 e0       	ldi	r19, 0x09	; 9
    2754:	44 0f       	add	r20, r20
    2756:	55 1f       	adc	r21, r21
    2758:	66 1f       	adc	r22, r22
    275a:	77 1f       	adc	r23, r23
    275c:	3a 95       	dec	r19
    275e:	d1 f7       	brne	.-12     	; 0x2754 <_ZN7Sd2Card10writeBlockEmPKh+0x26>
    2760:	30 2d       	mov	r19, r0
    2762:	9a 01       	movw	r18, r20
    2764:	ab 01       	movw	r20, r22
    2766:	68 e1       	ldi	r22, 0x18	; 24
    2768:	ce 01       	movw	r24, r28
    276a:	0e 94 69 11 	call	0x22d2	; 0x22d2 <_ZN7Sd2Card11cardCommandEhm>
    276e:	88 23       	and	r24, r24
    2770:	19 f0       	breq	.+6      	; 0x2778 <_ZN7Sd2Card10writeBlockEmPKh+0x4a>
    2772:	84 e0       	ldi	r24, 0x04	; 4
    2774:	8d 83       	std	Y+5, r24	; 0x05
    2776:	26 c0       	rjmp	.+76     	; 0x27c4 <_ZN7Sd2Card10writeBlockEmPKh+0x96>
    2778:	a8 01       	movw	r20, r16
    277a:	6e ef       	ldi	r22, 0xFE	; 254
    277c:	ce 01       	movw	r24, r28
    277e:	0e 94 61 13 	call	0x26c2	; 0x26c2 <_ZN7Sd2Card9writeDataEhPKh>
    2782:	88 23       	and	r24, r24
    2784:	f9 f0       	breq	.+62     	; 0x27c4 <_ZN7Sd2Card10writeBlockEmPKh+0x96>
    2786:	68 e5       	ldi	r22, 0x58	; 88
    2788:	72 e0       	ldi	r23, 0x02	; 2
    278a:	ce 01       	movw	r24, r28
    278c:	0e 94 4d 11 	call	0x229a	; 0x229a <_ZN7Sd2Card11waitNotBusyEj>
    2790:	81 11       	cpse	r24, r1
    2792:	03 c0       	rjmp	.+6      	; 0x279a <_ZN7Sd2Card10writeBlockEmPKh+0x6c>
    2794:	85 e1       	ldi	r24, 0x15	; 21
    2796:	8d 83       	std	Y+5, r24	; 0x05
    2798:	15 c0       	rjmp	.+42     	; 0x27c4 <_ZN7Sd2Card10writeBlockEmPKh+0x96>
    279a:	20 e0       	ldi	r18, 0x00	; 0
    279c:	30 e0       	ldi	r19, 0x00	; 0
    279e:	a9 01       	movw	r20, r18
    27a0:	6d e0       	ldi	r22, 0x0D	; 13
    27a2:	ce 01       	movw	r24, r28
    27a4:	0e 94 69 11 	call	0x22d2	; 0x22d2 <_ZN7Sd2Card11cardCommandEhm>
    27a8:	81 11       	cpse	r24, r1
    27aa:	04 c0       	rjmp	.+8      	; 0x27b4 <_ZN7Sd2Card10writeBlockEmPKh+0x86>
    27ac:	0e 94 95 10 	call	0x212a	; 0x212a <_ZL6spiRecv>
    27b0:	88 23       	and	r24, r24
    27b2:	19 f0       	breq	.+6      	; 0x27ba <_ZN7Sd2Card10writeBlockEmPKh+0x8c>
    27b4:	84 e1       	ldi	r24, 0x14	; 20
    27b6:	8d 83       	std	Y+5, r24	; 0x05
    27b8:	05 c0       	rjmp	.+10     	; 0x27c4 <_ZN7Sd2Card10writeBlockEmPKh+0x96>
    27ba:	ce 01       	movw	r24, r28
    27bc:	0e 94 9d 10 	call	0x213a	; 0x213a <_ZN7Sd2Card14chipSelectHighEv>
    27c0:	81 e0       	ldi	r24, 0x01	; 1
    27c2:	04 c0       	rjmp	.+8      	; 0x27cc <_ZN7Sd2Card10writeBlockEmPKh+0x9e>
    27c4:	ce 01       	movw	r24, r28
    27c6:	0e 94 9d 10 	call	0x213a	; 0x213a <_ZN7Sd2Card14chipSelectHighEv>
    27ca:	80 e0       	ldi	r24, 0x00	; 0
    27cc:	df 91       	pop	r29
    27ce:	cf 91       	pop	r28
    27d0:	1f 91       	pop	r17
    27d2:	0f 91       	pop	r16
    27d4:	08 95       	ret

000027d6 <_GLOBAL__sub_I__ZN7Sd2Card11cardCommandEhm>:
    27d6:	80 e5       	ldi	r24, 0x50	; 80
    27d8:	80 93 e6 02 	sts	0x02E6, r24
    27dc:	10 92 e7 02 	sts	0x02E7, r1
    27e0:	08 95       	ret

000027e2 <_ZN6SdFile10addClusterEv>:
    27e2:	cf 93       	push	r28
    27e4:	df 93       	push	r29
    27e6:	ec 01       	movw	r28, r24
    27e8:	9c 01       	movw	r18, r24
    27ea:	2a 5f       	subi	r18, 0xFA	; 250
    27ec:	3f 4f       	sbci	r19, 0xFF	; 255
    27ee:	41 e0       	ldi	r20, 0x01	; 1
    27f0:	50 e0       	ldi	r21, 0x00	; 0
    27f2:	60 e0       	ldi	r22, 0x00	; 0
    27f4:	70 e0       	ldi	r23, 0x00	; 0
    27f6:	8b 8d       	ldd	r24, Y+27	; 0x1b
    27f8:	9c 8d       	ldd	r25, Y+28	; 0x1c
    27fa:	0e 94 d6 1e 	call	0x3dac	; 0x3dac <_ZN8SdVolume15allocContiguousEmPm>
    27fe:	88 23       	and	r24, r24
    2800:	a9 f0       	breq	.+42     	; 0x282c <_ZN6SdFile10addClusterEv+0x4a>
    2802:	4f 89       	ldd	r20, Y+23	; 0x17
    2804:	58 8d       	ldd	r21, Y+24	; 0x18
    2806:	69 8d       	ldd	r22, Y+25	; 0x19
    2808:	7a 8d       	ldd	r23, Y+26	; 0x1a
    280a:	45 2b       	or	r20, r21
    280c:	46 2b       	or	r20, r22
    280e:	47 2b       	or	r20, r23
    2810:	79 f4       	brne	.+30     	; 0x2830 <_ZN6SdFile10addClusterEv+0x4e>
    2812:	4e 81       	ldd	r20, Y+6	; 0x06
    2814:	5f 81       	ldd	r21, Y+7	; 0x07
    2816:	68 85       	ldd	r22, Y+8	; 0x08
    2818:	79 85       	ldd	r23, Y+9	; 0x09
    281a:	4f 8b       	std	Y+23, r20	; 0x17
    281c:	58 8f       	std	Y+24, r21	; 0x18
    281e:	69 8f       	std	Y+25, r22	; 0x19
    2820:	7a 8f       	std	Y+26, r23	; 0x1a
    2822:	8c 81       	ldd	r24, Y+4	; 0x04
    2824:	80 68       	ori	r24, 0x80	; 128
    2826:	8c 83       	std	Y+4, r24	; 0x04
    2828:	81 e0       	ldi	r24, 0x01	; 1
    282a:	03 c0       	rjmp	.+6      	; 0x2832 <_ZN6SdFile10addClusterEv+0x50>
    282c:	80 e0       	ldi	r24, 0x00	; 0
    282e:	01 c0       	rjmp	.+2      	; 0x2832 <_ZN6SdFile10addClusterEv+0x50>
    2830:	81 e0       	ldi	r24, 0x01	; 1
    2832:	df 91       	pop	r29
    2834:	cf 91       	pop	r28
    2836:	08 95       	ret

00002838 <_ZN6SdFile13addDirClusterEv>:
    2838:	cf 92       	push	r12
    283a:	df 92       	push	r13
    283c:	ef 92       	push	r14
    283e:	ff 92       	push	r15
    2840:	1f 93       	push	r17
    2842:	cf 93       	push	r28
    2844:	df 93       	push	r29
    2846:	ec 01       	movw	r28, r24
    2848:	0e 94 f1 13 	call	0x27e2	; 0x27e2 <_ZN6SdFile10addClusterEv>
    284c:	88 23       	and	r24, r24
    284e:	09 f4       	brne	.+2      	; 0x2852 <_ZN6SdFile13addDirClusterEv+0x1a>
    2850:	4b c0       	rjmp	.+150    	; 0x28e8 <_ZN6SdFile13addDirClusterEv+0xb0>
    2852:	eb 8d       	ldd	r30, Y+27	; 0x1b
    2854:	fc 8d       	ldd	r31, Y+28	; 0x1c
    2856:	ce 80       	ldd	r12, Y+6	; 0x06
    2858:	df 80       	ldd	r13, Y+7	; 0x07
    285a:	e8 84       	ldd	r14, Y+8	; 0x08
    285c:	f9 84       	ldd	r15, Y+9	; 0x09
    285e:	82 e0       	ldi	r24, 0x02	; 2
    2860:	c8 1a       	sub	r12, r24
    2862:	d1 08       	sbc	r13, r1
    2864:	e1 08       	sbc	r14, r1
    2866:	f1 08       	sbc	r15, r1
    2868:	05 84       	ldd	r0, Z+13	; 0x0d
    286a:	04 c0       	rjmp	.+8      	; 0x2874 <_ZN6SdFile13addDirClusterEv+0x3c>
    286c:	cc 0c       	add	r12, r12
    286e:	dd 1c       	adc	r13, r13
    2870:	ee 1c       	adc	r14, r14
    2872:	ff 1c       	adc	r15, r15
    2874:	0a 94       	dec	r0
    2876:	d2 f7       	brpl	.-12     	; 0x286c <_ZN6SdFile13addDirClusterEv+0x34>
    2878:	86 85       	ldd	r24, Z+14	; 0x0e
    287a:	97 85       	ldd	r25, Z+15	; 0x0f
    287c:	a0 89       	ldd	r26, Z+16	; 0x10
    287e:	b1 89       	ldd	r27, Z+17	; 0x11
    2880:	c8 0e       	add	r12, r24
    2882:	d9 1e       	adc	r13, r25
    2884:	ea 1e       	adc	r14, r26
    2886:	fb 1e       	adc	r15, r27
    2888:	14 81       	ldd	r17, Z+4	; 0x04
    288a:	11 23       	and	r17, r17
    288c:	89 f0       	breq	.+34     	; 0x28b0 <_ZN6SdFile13addDirClusterEv+0x78>
    288e:	81 e0       	ldi	r24, 0x01	; 1
    2890:	c8 1a       	sub	r12, r24
    2892:	d1 08       	sbc	r13, r1
    2894:	e1 08       	sbc	r14, r1
    2896:	f1 08       	sbc	r15, r1
    2898:	c7 01       	movw	r24, r14
    289a:	b6 01       	movw	r22, r12
    289c:	61 0f       	add	r22, r17
    289e:	71 1d       	adc	r23, r1
    28a0:	81 1d       	adc	r24, r1
    28a2:	91 1d       	adc	r25, r1
    28a4:	0e 94 f5 1c 	call	0x39ea	; 0x39ea <_ZN8SdVolume14cacheZeroBlockEm>
    28a8:	88 23       	and	r24, r24
    28aa:	01 f1       	breq	.+64     	; 0x28ec <_ZN6SdFile13addDirClusterEv+0xb4>
    28ac:	11 50       	subi	r17, 0x01	; 1
    28ae:	a1 f7       	brne	.-24     	; 0x2898 <_ZN6SdFile13addDirClusterEv+0x60>
    28b0:	eb 8d       	ldd	r30, Y+27	; 0x1b
    28b2:	fc 8d       	ldd	r31, Y+28	; 0x1c
    28b4:	80 e0       	ldi	r24, 0x00	; 0
    28b6:	92 e0       	ldi	r25, 0x02	; 2
    28b8:	a0 e0       	ldi	r26, 0x00	; 0
    28ba:	b0 e0       	ldi	r27, 0x00	; 0
    28bc:	05 84       	ldd	r0, Z+13	; 0x0d
    28be:	04 c0       	rjmp	.+8      	; 0x28c8 <_ZN6SdFile13addDirClusterEv+0x90>
    28c0:	88 0f       	add	r24, r24
    28c2:	99 1f       	adc	r25, r25
    28c4:	aa 1f       	adc	r26, r26
    28c6:	bb 1f       	adc	r27, r27
    28c8:	0a 94       	dec	r0
    28ca:	d2 f7       	brpl	.-12     	; 0x28c0 <_ZN6SdFile13addDirClusterEv+0x88>
    28cc:	4b 89       	ldd	r20, Y+19	; 0x13
    28ce:	5c 89       	ldd	r21, Y+20	; 0x14
    28d0:	6d 89       	ldd	r22, Y+21	; 0x15
    28d2:	7e 89       	ldd	r23, Y+22	; 0x16
    28d4:	84 0f       	add	r24, r20
    28d6:	95 1f       	adc	r25, r21
    28d8:	a6 1f       	adc	r26, r22
    28da:	b7 1f       	adc	r27, r23
    28dc:	8b 8b       	std	Y+19, r24	; 0x13
    28de:	9c 8b       	std	Y+20, r25	; 0x14
    28e0:	ad 8b       	std	Y+21, r26	; 0x15
    28e2:	be 8b       	std	Y+22, r27	; 0x16
    28e4:	81 e0       	ldi	r24, 0x01	; 1
    28e6:	03 c0       	rjmp	.+6      	; 0x28ee <_ZN6SdFile13addDirClusterEv+0xb6>
    28e8:	80 e0       	ldi	r24, 0x00	; 0
    28ea:	01 c0       	rjmp	.+2      	; 0x28ee <_ZN6SdFile13addDirClusterEv+0xb6>
    28ec:	80 e0       	ldi	r24, 0x00	; 0
    28ee:	df 91       	pop	r29
    28f0:	cf 91       	pop	r28
    28f2:	1f 91       	pop	r17
    28f4:	ff 90       	pop	r15
    28f6:	ef 90       	pop	r14
    28f8:	df 90       	pop	r13
    28fa:	cf 90       	pop	r12
    28fc:	08 95       	ret

000028fe <_ZN6SdFile13cacheDirEntryEh>:
    28fe:	cf 93       	push	r28
    2900:	df 93       	push	r29
    2902:	ec 01       	movw	r28, r24
    2904:	46 2f       	mov	r20, r22
    2906:	6e 85       	ldd	r22, Y+14	; 0x0e
    2908:	7f 85       	ldd	r23, Y+15	; 0x0f
    290a:	88 89       	ldd	r24, Y+16	; 0x10
    290c:	99 89       	ldd	r25, Y+17	; 0x11
    290e:	0e 94 b8 1c 	call	0x3970	; 0x3970 <_ZN8SdVolume13cacheRawBlockEmh>
    2912:	88 23       	and	r24, r24
    2914:	41 f0       	breq	.+16     	; 0x2926 <_ZN6SdFile13cacheDirEntryEh+0x28>
    2916:	8a 89       	ldd	r24, Y+18	; 0x12
    2918:	20 e2       	ldi	r18, 0x20	; 32
    291a:	82 9f       	mul	r24, r18
    291c:	c0 01       	movw	r24, r0
    291e:	11 24       	eor	r1, r1
    2920:	8f 50       	subi	r24, 0x0F	; 15
    2922:	9d 4f       	sbci	r25, 0xFD	; 253
    2924:	02 c0       	rjmp	.+4      	; 0x292a <_ZN6SdFile13cacheDirEntryEh+0x2c>
    2926:	80 e0       	ldi	r24, 0x00	; 0
    2928:	90 e0       	ldi	r25, 0x00	; 0
    292a:	df 91       	pop	r29
    292c:	cf 91       	pop	r28
    292e:	08 95       	ret

00002930 <_ZN6SdFile10make83NameEPKcPh>:
    2930:	1f 93       	push	r17
    2932:	cf 93       	push	r28
    2934:	df 93       	push	r29
    2936:	38 2f       	mov	r19, r24
    2938:	fb 01       	movw	r30, r22
    293a:	8b e0       	ldi	r24, 0x0B	; 11
    293c:	20 e2       	ldi	r18, 0x20	; 32
    293e:	21 93       	st	Z+, r18
    2940:	81 50       	subi	r24, 0x01	; 1
    2942:	e9 f7       	brne	.-6      	; 0x293e <_ZN6SdFile10make83NameEPKcPh+0xe>
    2944:	a3 2f       	mov	r26, r19
    2946:	b9 2f       	mov	r27, r25
    2948:	50 e0       	ldi	r21, 0x00	; 0
    294a:	c7 e0       	ldi	r28, 0x07	; 7
    294c:	18 e0       	ldi	r17, 0x08	; 8
    294e:	da e0       	ldi	r29, 0x0A	; 10
    2950:	23 ec       	ldi	r18, 0xC3	; 195
    2952:	30 e0       	ldi	r19, 0x00	; 0
    2954:	21 c0       	rjmp	.+66     	; 0x2998 <_ZN6SdFile10make83NameEPKcPh+0x68>
    2956:	4e 32       	cpi	r20, 0x2E	; 46
    2958:	11 f0       	breq	.+4      	; 0x295e <_ZN6SdFile10make83NameEPKcPh+0x2e>
    295a:	f9 01       	movw	r30, r18
    295c:	08 c0       	rjmp	.+16     	; 0x296e <_ZN6SdFile10make83NameEPKcPh+0x3e>
    295e:	ca 30       	cpi	r28, 0x0A	; 10
    2960:	21 f1       	breq	.+72     	; 0x29aa <_ZN6SdFile10make83NameEPKcPh+0x7a>
    2962:	51 2f       	mov	r21, r17
    2964:	cd 2f       	mov	r28, r29
    2966:	18 c0       	rjmp	.+48     	; 0x2998 <_ZN6SdFile10make83NameEPKcPh+0x68>
    2968:	31 96       	adiw	r30, 0x01	; 1
    296a:	49 17       	cp	r20, r25
    296c:	f1 f0       	breq	.+60     	; 0x29aa <_ZN6SdFile10make83NameEPKcPh+0x7a>
    296e:	94 91       	lpm	r25, Z
    2970:	91 11       	cpse	r25, r1
    2972:	fa cf       	rjmp	.-12     	; 0x2968 <_ZN6SdFile10make83NameEPKcPh+0x38>
    2974:	c5 17       	cp	r28, r21
    2976:	c8 f0       	brcs	.+50     	; 0x29aa <_ZN6SdFile10make83NameEPKcPh+0x7a>
    2978:	9f ed       	ldi	r25, 0xDF	; 223
    297a:	94 0f       	add	r25, r20
    297c:	9e 35       	cpi	r25, 0x5E	; 94
    297e:	a8 f4       	brcc	.+42     	; 0x29aa <_ZN6SdFile10make83NameEPKcPh+0x7a>
    2980:	91 e0       	ldi	r25, 0x01	; 1
    2982:	95 0f       	add	r25, r21
    2984:	fb 01       	movw	r30, r22
    2986:	e5 0f       	add	r30, r21
    2988:	f1 1d       	adc	r31, r1
    298a:	5f e9       	ldi	r21, 0x9F	; 159
    298c:	54 0f       	add	r21, r20
    298e:	5a 31       	cpi	r21, 0x1A	; 26
    2990:	08 f4       	brcc	.+2      	; 0x2994 <_ZN6SdFile10make83NameEPKcPh+0x64>
    2992:	40 52       	subi	r20, 0x20	; 32
    2994:	40 83       	st	Z, r20
    2996:	59 2f       	mov	r21, r25
    2998:	4d 91       	ld	r20, X+
    299a:	41 11       	cpse	r20, r1
    299c:	dc cf       	rjmp	.-72     	; 0x2956 <_ZN6SdFile10make83NameEPKcPh+0x26>
    299e:	81 e0       	ldi	r24, 0x01	; 1
    29a0:	fb 01       	movw	r30, r22
    29a2:	90 81       	ld	r25, Z
    29a4:	90 32       	cpi	r25, 0x20	; 32
    29a6:	09 f4       	brne	.+2      	; 0x29aa <_ZN6SdFile10make83NameEPKcPh+0x7a>
    29a8:	80 e0       	ldi	r24, 0x00	; 0
    29aa:	df 91       	pop	r29
    29ac:	cf 91       	pop	r28
    29ae:	1f 91       	pop	r17
    29b0:	08 95       	ret

000029b2 <_ZN6SdFile8openRootEP8SdVolume>:
    29b2:	0f 93       	push	r16
    29b4:	1f 93       	push	r17
    29b6:	cf 93       	push	r28
    29b8:	df 93       	push	r29
    29ba:	ec 01       	movw	r28, r24
    29bc:	8b 01       	movw	r16, r22
    29be:	8d 81       	ldd	r24, Y+5	; 0x05
    29c0:	81 11       	cpse	r24, r1
    29c2:	4e c0       	rjmp	.+156    	; 0x2a60 <_ZN6SdFile8openRootEP8SdVolume+0xae>
    29c4:	fb 01       	movw	r30, r22
    29c6:	87 89       	ldd	r24, Z+23	; 0x17
    29c8:	80 31       	cpi	r24, 0x10	; 16
    29ca:	19 f5       	brne	.+70     	; 0x2a12 <_ZN6SdFile8openRootEP8SdVolume+0x60>
    29cc:	82 e0       	ldi	r24, 0x02	; 2
    29ce:	8d 83       	std	Y+5, r24	; 0x05
    29d0:	1f 8a       	std	Y+23, r1	; 0x17
    29d2:	18 8e       	std	Y+24, r1	; 0x18
    29d4:	19 8e       	std	Y+25, r1	; 0x19
    29d6:	1a 8e       	std	Y+26, r1	; 0x1a
    29d8:	40 8d       	ldd	r20, Z+24	; 0x18
    29da:	51 8d       	ldd	r21, Z+25	; 0x19
    29dc:	60 e0       	ldi	r22, 0x00	; 0
    29de:	70 e0       	ldi	r23, 0x00	; 0
    29e0:	44 0f       	add	r20, r20
    29e2:	55 1f       	adc	r21, r21
    29e4:	66 1f       	adc	r22, r22
    29e6:	77 1f       	adc	r23, r23
    29e8:	44 0f       	add	r20, r20
    29ea:	55 1f       	adc	r21, r21
    29ec:	66 1f       	adc	r22, r22
    29ee:	77 1f       	adc	r23, r23
    29f0:	44 0f       	add	r20, r20
    29f2:	55 1f       	adc	r21, r21
    29f4:	66 1f       	adc	r22, r22
    29f6:	77 1f       	adc	r23, r23
    29f8:	44 0f       	add	r20, r20
    29fa:	55 1f       	adc	r21, r21
    29fc:	66 1f       	adc	r22, r22
    29fe:	77 1f       	adc	r23, r23
    2a00:	44 0f       	add	r20, r20
    2a02:	55 1f       	adc	r21, r21
    2a04:	66 1f       	adc	r22, r22
    2a06:	77 1f       	adc	r23, r23
    2a08:	4b 8b       	std	Y+19, r20	; 0x13
    2a0a:	5c 8b       	std	Y+20, r21	; 0x14
    2a0c:	6d 8b       	std	Y+21, r22	; 0x15
    2a0e:	7e 8b       	std	Y+22, r23	; 0x16
    2a10:	15 c0       	rjmp	.+42     	; 0x2a3c <_ZN6SdFile8openRootEP8SdVolume+0x8a>
    2a12:	80 32       	cpi	r24, 0x20	; 32
    2a14:	39 f5       	brne	.+78     	; 0x2a64 <_ZN6SdFile8openRootEP8SdVolume+0xb2>
    2a16:	83 e0       	ldi	r24, 0x03	; 3
    2a18:	8d 83       	std	Y+5, r24	; 0x05
    2a1a:	fb 01       	movw	r30, r22
    2a1c:	42 8d       	ldd	r20, Z+26	; 0x1a
    2a1e:	53 8d       	ldd	r21, Z+27	; 0x1b
    2a20:	64 8d       	ldd	r22, Z+28	; 0x1c
    2a22:	75 8d       	ldd	r23, Z+29	; 0x1d
    2a24:	4f 8b       	std	Y+23, r20	; 0x17
    2a26:	58 8f       	std	Y+24, r21	; 0x18
    2a28:	69 8f       	std	Y+25, r22	; 0x19
    2a2a:	7a 8f       	std	Y+26, r23	; 0x1a
    2a2c:	9e 01       	movw	r18, r28
    2a2e:	2d 5e       	subi	r18, 0xED	; 237
    2a30:	3f 4f       	sbci	r19, 0xFF	; 255
    2a32:	c8 01       	movw	r24, r16
    2a34:	0e 94 a7 1d 	call	0x3b4e	; 0x3b4e <_ZNK8SdVolume9chainSizeEmPm>
    2a38:	88 23       	and	r24, r24
    2a3a:	b1 f0       	breq	.+44     	; 0x2a68 <_ZN6SdFile8openRootEP8SdVolume+0xb6>
    2a3c:	1c 8f       	std	Y+28, r17	; 0x1c
    2a3e:	0b 8f       	std	Y+27, r16	; 0x1b
    2a40:	81 e0       	ldi	r24, 0x01	; 1
    2a42:	8c 83       	std	Y+4, r24	; 0x04
    2a44:	1e 82       	std	Y+6, r1	; 0x06
    2a46:	1f 82       	std	Y+7, r1	; 0x07
    2a48:	18 86       	std	Y+8, r1	; 0x08
    2a4a:	19 86       	std	Y+9, r1	; 0x09
    2a4c:	1a 86       	std	Y+10, r1	; 0x0a
    2a4e:	1b 86       	std	Y+11, r1	; 0x0b
    2a50:	1c 86       	std	Y+12, r1	; 0x0c
    2a52:	1d 86       	std	Y+13, r1	; 0x0d
    2a54:	1e 86       	std	Y+14, r1	; 0x0e
    2a56:	1f 86       	std	Y+15, r1	; 0x0f
    2a58:	18 8a       	std	Y+16, r1	; 0x10
    2a5a:	19 8a       	std	Y+17, r1	; 0x11
    2a5c:	1a 8a       	std	Y+18, r1	; 0x12
    2a5e:	05 c0       	rjmp	.+10     	; 0x2a6a <_ZN6SdFile8openRootEP8SdVolume+0xb8>
    2a60:	80 e0       	ldi	r24, 0x00	; 0
    2a62:	03 c0       	rjmp	.+6      	; 0x2a6a <_ZN6SdFile8openRootEP8SdVolume+0xb8>
    2a64:	80 e0       	ldi	r24, 0x00	; 0
    2a66:	01 c0       	rjmp	.+2      	; 0x2a6a <_ZN6SdFile8openRootEP8SdVolume+0xb8>
    2a68:	80 e0       	ldi	r24, 0x00	; 0
    2a6a:	df 91       	pop	r29
    2a6c:	cf 91       	pop	r28
    2a6e:	1f 91       	pop	r17
    2a70:	0f 91       	pop	r16
    2a72:	08 95       	ret

00002a74 <_ZN6SdFile4readEPvj>:
    2a74:	2f 92       	push	r2
    2a76:	3f 92       	push	r3
    2a78:	4f 92       	push	r4
    2a7a:	5f 92       	push	r5
    2a7c:	6f 92       	push	r6
    2a7e:	7f 92       	push	r7
    2a80:	8f 92       	push	r8
    2a82:	9f 92       	push	r9
    2a84:	af 92       	push	r10
    2a86:	bf 92       	push	r11
    2a88:	cf 92       	push	r12
    2a8a:	df 92       	push	r13
    2a8c:	ef 92       	push	r14
    2a8e:	ff 92       	push	r15
    2a90:	0f 93       	push	r16
    2a92:	1f 93       	push	r17
    2a94:	cf 93       	push	r28
    2a96:	df 93       	push	r29
    2a98:	00 d0       	rcall	.+0      	; 0x2a9a <_ZN6SdFile4readEPvj+0x26>
    2a9a:	00 d0       	rcall	.+0      	; 0x2a9c <_ZN6SdFile4readEPvj+0x28>
    2a9c:	00 d0       	rcall	.+0      	; 0x2a9e <_ZN6SdFile4readEPvj+0x2a>
    2a9e:	cd b7       	in	r28, 0x3d	; 61
    2aa0:	de b7       	in	r29, 0x3e	; 62
    2aa2:	9e 83       	std	Y+6, r25	; 0x06
    2aa4:	8d 83       	std	Y+5, r24	; 0x05
    2aa6:	3b 01       	movw	r6, r22
    2aa8:	5a 83       	std	Y+2, r21	; 0x02
    2aaa:	49 83       	std	Y+1, r20	; 0x01
    2aac:	dc 01       	movw	r26, r24
    2aae:	15 96       	adiw	r26, 0x05	; 5
    2ab0:	8c 91       	ld	r24, X
    2ab2:	15 97       	sbiw	r26, 0x05	; 5
    2ab4:	88 23       	and	r24, r24
    2ab6:	09 f4       	brne	.+2      	; 0x2aba <_ZN6SdFile4readEPvj+0x46>
    2ab8:	11 c1       	rjmp	.+546    	; 0x2cdc <_ZN6SdFile4readEPvj+0x268>
    2aba:	14 96       	adiw	r26, 0x04	; 4
    2abc:	8c 91       	ld	r24, X
    2abe:	14 97       	sbiw	r26, 0x04	; 4
    2ac0:	80 ff       	sbrs	r24, 0
    2ac2:	0f c1       	rjmp	.+542    	; 0x2ce2 <_ZN6SdFile4readEPvj+0x26e>
    2ac4:	53 96       	adiw	r26, 0x13	; 19
    2ac6:	4d 91       	ld	r20, X+
    2ac8:	5d 91       	ld	r21, X+
    2aca:	6d 91       	ld	r22, X+
    2acc:	7c 91       	ld	r23, X
    2ace:	56 97       	sbiw	r26, 0x16	; 22
    2ad0:	1a 96       	adiw	r26, 0x0a	; 10
    2ad2:	8d 91       	ld	r24, X+
    2ad4:	9d 91       	ld	r25, X+
    2ad6:	0d 90       	ld	r0, X+
    2ad8:	bc 91       	ld	r27, X
    2ada:	a0 2d       	mov	r26, r0
    2adc:	e9 81       	ldd	r30, Y+1	; 0x01
    2ade:	fa 81       	ldd	r31, Y+2	; 0x02
    2ae0:	4f 01       	movw	r8, r30
    2ae2:	a1 2c       	mov	r10, r1
    2ae4:	b1 2c       	mov	r11, r1
    2ae6:	8a 01       	movw	r16, r20
    2ae8:	9b 01       	movw	r18, r22
    2aea:	08 1b       	sub	r16, r24
    2aec:	19 0b       	sbc	r17, r25
    2aee:	2a 0b       	sbc	r18, r26
    2af0:	3b 0b       	sbc	r19, r27
    2af2:	08 15       	cp	r16, r8
    2af4:	19 05       	cpc	r17, r9
    2af6:	2a 05       	cpc	r18, r10
    2af8:	3b 05       	cpc	r19, r11
    2afa:	28 f4       	brcc	.+10     	; 0x2b06 <_ZN6SdFile4readEPvj+0x92>
    2afc:	8a 01       	movw	r16, r20
    2afe:	08 1b       	sub	r16, r24
    2b00:	19 0b       	sbc	r17, r25
    2b02:	1a 83       	std	Y+2, r17	; 0x02
    2b04:	09 83       	std	Y+1, r16	; 0x01
    2b06:	29 81       	ldd	r18, Y+1	; 0x01
    2b08:	3a 81       	ldd	r19, Y+2	; 0x02
    2b0a:	21 15       	cp	r18, r1
    2b0c:	31 05       	cpc	r19, r1
    2b0e:	09 f4       	brne	.+2      	; 0x2b12 <_ZN6SdFile4readEPvj+0x9e>
    2b10:	e2 c0       	rjmp	.+452    	; 0x2cd6 <_ZN6SdFile4readEPvj+0x262>
    2b12:	59 01       	movw	r10, r18
    2b14:	8d 81       	ldd	r24, Y+5	; 0x05
    2b16:	9e 81       	ldd	r25, Y+6	; 0x06
    2b18:	06 96       	adiw	r24, 0x06	; 6
    2b1a:	9c 83       	std	Y+4, r25	; 0x04
    2b1c:	8b 83       	std	Y+3, r24	; 0x03
    2b1e:	41 2c       	mov	r4, r1
    2b20:	68 94       	set
    2b22:	55 24       	eor	r5, r5
    2b24:	51 f8       	bld	r5, 1
    2b26:	22 24       	eor	r2, r2
    2b28:	23 94       	inc	r2
    2b2a:	31 2c       	mov	r3, r1
    2b2c:	ed 81       	ldd	r30, Y+5	; 0x05
    2b2e:	fe 81       	ldd	r31, Y+6	; 0x06
    2b30:	82 85       	ldd	r24, Z+10	; 0x0a
    2b32:	93 85       	ldd	r25, Z+11	; 0x0b
    2b34:	a4 85       	ldd	r26, Z+12	; 0x0c
    2b36:	b5 85       	ldd	r27, Z+13	; 0x0d
    2b38:	4c 01       	movw	r8, r24
    2b3a:	f1 e0       	ldi	r31, 0x01	; 1
    2b3c:	9f 22       	and	r9, r31
    2b3e:	ed 81       	ldd	r30, Y+5	; 0x05
    2b40:	fe 81       	ldd	r31, Y+6	; 0x06
    2b42:	25 81       	ldd	r18, Z+5	; 0x05
    2b44:	22 30       	cpi	r18, 0x02	; 2
    2b46:	d9 f4       	brne	.+54     	; 0x2b7e <_ZN6SdFile4readEPvj+0x10a>
    2b48:	ac 01       	movw	r20, r24
    2b4a:	bd 01       	movw	r22, r26
    2b4c:	03 2e       	mov	r0, r19
    2b4e:	39 e0       	ldi	r19, 0x09	; 9
    2b50:	76 95       	lsr	r23
    2b52:	67 95       	ror	r22
    2b54:	57 95       	ror	r21
    2b56:	47 95       	ror	r20
    2b58:	3a 95       	dec	r19
    2b5a:	d1 f7       	brne	.-12     	; 0x2b50 <_ZN6SdFile4readEPvj+0xdc>
    2b5c:	30 2d       	mov	r19, r0
    2b5e:	03 8c       	ldd	r0, Z+27	; 0x1b
    2b60:	f4 8d       	ldd	r31, Z+28	; 0x1c
    2b62:	e0 2d       	mov	r30, r0
    2b64:	82 8d       	ldd	r24, Z+26	; 0x1a
    2b66:	93 8d       	ldd	r25, Z+27	; 0x1b
    2b68:	a4 8d       	ldd	r26, Z+28	; 0x1c
    2b6a:	b5 8d       	ldd	r27, Z+29	; 0x1d
    2b6c:	8a 01       	movw	r16, r20
    2b6e:	9b 01       	movw	r18, r22
    2b70:	08 0f       	add	r16, r24
    2b72:	19 1f       	adc	r17, r25
    2b74:	2a 1f       	adc	r18, r26
    2b76:	3b 1f       	adc	r19, r27
    2b78:	c9 01       	movw	r24, r18
    2b7a:	b8 01       	movw	r22, r16
    2b7c:	59 c0       	rjmp	.+178    	; 0x2c30 <_ZN6SdFile4readEPvj+0x1bc>
    2b7e:	ed 81       	ldd	r30, Y+5	; 0x05
    2b80:	fe 81       	ldd	r31, Y+6	; 0x06
    2b82:	e3 8c       	ldd	r14, Z+27	; 0x1b
    2b84:	f4 8c       	ldd	r15, Z+28	; 0x1c
    2b86:	f7 01       	movw	r30, r14
    2b88:	d4 80       	ldd	r13, Z+4	; 0x04
    2b8a:	da 94       	dec	r13
    2b8c:	8c 01       	movw	r16, r24
    2b8e:	9d 01       	movw	r18, r26
    2b90:	0f 2e       	mov	r0, r31
    2b92:	f9 e0       	ldi	r31, 0x09	; 9
    2b94:	36 95       	lsr	r19
    2b96:	27 95       	ror	r18
    2b98:	17 95       	ror	r17
    2b9a:	07 95       	ror	r16
    2b9c:	fa 95       	dec	r31
    2b9e:	d1 f7       	brne	.-12     	; 0x2b94 <_ZN6SdFile4readEPvj+0x120>
    2ba0:	f0 2d       	mov	r31, r0
    2ba2:	d0 22       	and	r13, r16
    2ba4:	81 14       	cp	r8, r1
    2ba6:	91 04       	cpc	r9, r1
    2ba8:	09 f5       	brne	.+66     	; 0x2bec <_ZN6SdFile4readEPvj+0x178>
    2baa:	d1 10       	cpse	r13, r1
    2bac:	1f c0       	rjmp	.+62     	; 0x2bec <_ZN6SdFile4readEPvj+0x178>
    2bae:	89 2b       	or	r24, r25
    2bb0:	8a 2b       	or	r24, r26
    2bb2:	8b 2b       	or	r24, r27
    2bb4:	59 f4       	brne	.+22     	; 0x2bcc <_ZN6SdFile4readEPvj+0x158>
    2bb6:	ed 81       	ldd	r30, Y+5	; 0x05
    2bb8:	fe 81       	ldd	r31, Y+6	; 0x06
    2bba:	87 89       	ldd	r24, Z+23	; 0x17
    2bbc:	90 8d       	ldd	r25, Z+24	; 0x18
    2bbe:	a1 8d       	ldd	r26, Z+25	; 0x19
    2bc0:	b2 8d       	ldd	r27, Z+26	; 0x1a
    2bc2:	86 83       	std	Z+6, r24	; 0x06
    2bc4:	97 83       	std	Z+7, r25	; 0x07
    2bc6:	a0 87       	std	Z+8, r26	; 0x08
    2bc8:	b1 87       	std	Z+9, r27	; 0x09
    2bca:	10 c0       	rjmp	.+32     	; 0x2bec <_ZN6SdFile4readEPvj+0x178>
    2bcc:	ad 81       	ldd	r26, Y+5	; 0x05
    2bce:	be 81       	ldd	r27, Y+6	; 0x06
    2bd0:	16 96       	adiw	r26, 0x06	; 6
    2bd2:	4d 91       	ld	r20, X+
    2bd4:	5d 91       	ld	r21, X+
    2bd6:	6d 91       	ld	r22, X+
    2bd8:	7c 91       	ld	r23, X
    2bda:	19 97       	sbiw	r26, 0x09	; 9
    2bdc:	2b 81       	ldd	r18, Y+3	; 0x03
    2bde:	3c 81       	ldd	r19, Y+4	; 0x04
    2be0:	c7 01       	movw	r24, r14
    2be2:	0e 94 1c 1d 	call	0x3a38	; 0x3a38 <_ZNK8SdVolume6fatGetEmPm>
    2be6:	88 23       	and	r24, r24
    2be8:	09 f4       	brne	.+2      	; 0x2bec <_ZN6SdFile4readEPvj+0x178>
    2bea:	7e c0       	rjmp	.+252    	; 0x2ce8 <_ZN6SdFile4readEPvj+0x274>
    2bec:	ed 81       	ldd	r30, Y+5	; 0x05
    2bee:	fe 81       	ldd	r31, Y+6	; 0x06
    2bf0:	23 8d       	ldd	r18, Z+27	; 0x1b
    2bf2:	34 8d       	ldd	r19, Z+28	; 0x1c
    2bf4:	86 81       	ldd	r24, Z+6	; 0x06
    2bf6:	97 81       	ldd	r25, Z+7	; 0x07
    2bf8:	a0 85       	ldd	r26, Z+8	; 0x08
    2bfa:	b1 85       	ldd	r27, Z+9	; 0x09
    2bfc:	02 97       	sbiw	r24, 0x02	; 2
    2bfe:	a1 09       	sbc	r26, r1
    2c00:	b1 09       	sbc	r27, r1
    2c02:	f9 01       	movw	r30, r18
    2c04:	05 84       	ldd	r0, Z+13	; 0x0d
    2c06:	04 c0       	rjmp	.+8      	; 0x2c10 <_ZN6SdFile4readEPvj+0x19c>
    2c08:	88 0f       	add	r24, r24
    2c0a:	99 1f       	adc	r25, r25
    2c0c:	aa 1f       	adc	r26, r26
    2c0e:	bb 1f       	adc	r27, r27
    2c10:	0a 94       	dec	r0
    2c12:	d2 f7       	brpl	.-12     	; 0x2c08 <_ZN6SdFile4readEPvj+0x194>
    2c14:	06 85       	ldd	r16, Z+14	; 0x0e
    2c16:	17 85       	ldd	r17, Z+15	; 0x0f
    2c18:	20 89       	ldd	r18, Z+16	; 0x10
    2c1a:	31 89       	ldd	r19, Z+17	; 0x11
    2c1c:	80 0f       	add	r24, r16
    2c1e:	91 1f       	adc	r25, r17
    2c20:	a2 1f       	adc	r26, r18
    2c22:	b3 1f       	adc	r27, r19
    2c24:	bc 01       	movw	r22, r24
    2c26:	cd 01       	movw	r24, r26
    2c28:	6d 0d       	add	r22, r13
    2c2a:	71 1d       	adc	r23, r1
    2c2c:	81 1d       	adc	r24, r1
    2c2e:	91 1d       	adc	r25, r1
    2c30:	92 01       	movw	r18, r4
    2c32:	28 19       	sub	r18, r8
    2c34:	39 09       	sbc	r19, r9
    2c36:	65 01       	movw	r12, r10
    2c38:	2a 15       	cp	r18, r10
    2c3a:	3b 05       	cpc	r19, r11
    2c3c:	08 f4       	brcc	.+2      	; 0x2c40 <_ZN6SdFile4readEPvj+0x1cc>
    2c3e:	69 01       	movw	r12, r18
    2c40:	ad 81       	ldd	r26, Y+5	; 0x05
    2c42:	be 81       	ldd	r27, Y+6	; 0x06
    2c44:	14 96       	adiw	r26, 0x04	; 4
    2c46:	2c 91       	ld	r18, X
    2c48:	26 fd       	sbrc	r18, 6
    2c4a:	05 c0       	rjmp	.+10     	; 0x2c56 <_ZN6SdFile4readEPvj+0x1e2>
    2c4c:	c1 14       	cp	r12, r1
    2c4e:	b2 e0       	ldi	r27, 0x02	; 2
    2c50:	db 06       	cpc	r13, r27
    2c52:	09 f0       	breq	.+2      	; 0x2c56 <_ZN6SdFile4readEPvj+0x1e2>
    2c54:	60 c0       	rjmp	.+192    	; 0x2d16 <_ZN6SdFile4readEPvj+0x2a2>
    2c56:	00 91 07 01 	lds	r16, 0x0107
    2c5a:	10 91 08 01 	lds	r17, 0x0108
    2c5e:	20 91 09 01 	lds	r18, 0x0109
    2c62:	30 91 0a 01 	lds	r19, 0x010A
    2c66:	60 17       	cp	r22, r16
    2c68:	71 07       	cpc	r23, r17
    2c6a:	82 07       	cpc	r24, r18
    2c6c:	93 07       	cpc	r25, r19
    2c6e:	09 f0       	breq	.+2      	; 0x2c72 <_ZN6SdFile4readEPvj+0x1fe>
    2c70:	44 c0       	rjmp	.+136    	; 0x2cfa <_ZN6SdFile4readEPvj+0x286>
    2c72:	51 c0       	rjmp	.+162    	; 0x2d16 <_ZN6SdFile4readEPvj+0x2a2>
    2c74:	6c 0c       	add	r6, r12
    2c76:	7d 1c       	adc	r7, r13
    2c78:	1c c0       	rjmp	.+56     	; 0x2cb2 <_ZN6SdFile4readEPvj+0x23e>
    2c7a:	b4 01       	movw	r22, r8
    2c7c:	6f 50       	subi	r22, 0x0F	; 15
    2c7e:	7d 4f       	sbci	r23, 0xFD	; 253
    2c80:	9b 01       	movw	r18, r22
    2c82:	2c 0d       	add	r18, r12
    2c84:	3d 1d       	adc	r19, r13
    2c86:	62 17       	cp	r22, r18
    2c88:	73 07       	cpc	r23, r19
    2c8a:	99 f0       	breq	.+38     	; 0x2cb2 <_ZN6SdFile4readEPvj+0x23e>
    2c8c:	fb 01       	movw	r30, r22
    2c8e:	d3 01       	movw	r26, r6
    2c90:	c9 01       	movw	r24, r18
    2c92:	41 91       	ld	r20, Z+
    2c94:	4d 93       	st	X+, r20
    2c96:	e8 17       	cp	r30, r24
    2c98:	f9 07       	cpc	r31, r25
    2c9a:	d9 f7       	brne	.-10     	; 0x2c92 <_ZN6SdFile4readEPvj+0x21e>
    2c9c:	4b 01       	movw	r8, r22
    2c9e:	ef ef       	ldi	r30, 0xFF	; 255
    2ca0:	8e 1a       	sub	r8, r30
    2ca2:	9e 0a       	sbc	r9, r30
    2ca4:	c1 01       	movw	r24, r2
    2ca6:	88 19       	sub	r24, r8
    2ca8:	99 09       	sbc	r25, r9
    2caa:	28 0f       	add	r18, r24
    2cac:	39 1f       	adc	r19, r25
    2cae:	62 0e       	add	r6, r18
    2cb0:	73 1e       	adc	r7, r19
    2cb2:	ed 81       	ldd	r30, Y+5	; 0x05
    2cb4:	fe 81       	ldd	r31, Y+6	; 0x06
    2cb6:	82 85       	ldd	r24, Z+10	; 0x0a
    2cb8:	93 85       	ldd	r25, Z+11	; 0x0b
    2cba:	a4 85       	ldd	r26, Z+12	; 0x0c
    2cbc:	b5 85       	ldd	r27, Z+13	; 0x0d
    2cbe:	8c 0d       	add	r24, r12
    2cc0:	9d 1d       	adc	r25, r13
    2cc2:	a1 1d       	adc	r26, r1
    2cc4:	b1 1d       	adc	r27, r1
    2cc6:	82 87       	std	Z+10, r24	; 0x0a
    2cc8:	93 87       	std	Z+11, r25	; 0x0b
    2cca:	a4 87       	std	Z+12, r26	; 0x0c
    2ccc:	b5 87       	std	Z+13, r27	; 0x0d
    2cce:	ac 18       	sub	r10, r12
    2cd0:	bd 08       	sbc	r11, r13
    2cd2:	09 f0       	breq	.+2      	; 0x2cd6 <_ZN6SdFile4readEPvj+0x262>
    2cd4:	2b cf       	rjmp	.-426    	; 0x2b2c <_ZN6SdFile4readEPvj+0xb8>
    2cd6:	89 81       	ldd	r24, Y+1	; 0x01
    2cd8:	9a 81       	ldd	r25, Y+2	; 0x02
    2cda:	23 c0       	rjmp	.+70     	; 0x2d22 <_ZN6SdFile4readEPvj+0x2ae>
    2cdc:	8f ef       	ldi	r24, 0xFF	; 255
    2cde:	9f ef       	ldi	r25, 0xFF	; 255
    2ce0:	20 c0       	rjmp	.+64     	; 0x2d22 <_ZN6SdFile4readEPvj+0x2ae>
    2ce2:	8f ef       	ldi	r24, 0xFF	; 255
    2ce4:	9f ef       	ldi	r25, 0xFF	; 255
    2ce6:	1d c0       	rjmp	.+58     	; 0x2d22 <_ZN6SdFile4readEPvj+0x2ae>
    2ce8:	8f ef       	ldi	r24, 0xFF	; 255
    2cea:	9f ef       	ldi	r25, 0xFF	; 255
    2cec:	1a c0       	rjmp	.+52     	; 0x2d22 <_ZN6SdFile4readEPvj+0x2ae>
    2cee:	8f ef       	ldi	r24, 0xFF	; 255
    2cf0:	9f ef       	ldi	r25, 0xFF	; 255
    2cf2:	17 c0       	rjmp	.+46     	; 0x2d22 <_ZN6SdFile4readEPvj+0x2ae>
    2cf4:	8f ef       	ldi	r24, 0xFF	; 255
    2cf6:	9f ef       	ldi	r25, 0xFF	; 255
    2cf8:	14 c0       	rjmp	.+40     	; 0x2d22 <_ZN6SdFile4readEPvj+0x2ae>
    2cfa:	73 01       	movw	r14, r6
    2cfc:	86 01       	movw	r16, r12
    2cfe:	94 01       	movw	r18, r8
    2d00:	ab 01       	movw	r20, r22
    2d02:	bc 01       	movw	r22, r24
    2d04:	80 91 ef 02 	lds	r24, 0x02EF
    2d08:	90 91 f0 02 	lds	r25, 0x02F0
    2d0c:	0e 94 c9 12 	call	0x2592	; 0x2592 <_ZN7Sd2Card8readDataEmjjPh>
    2d10:	81 11       	cpse	r24, r1
    2d12:	b0 cf       	rjmp	.-160    	; 0x2c74 <_ZN6SdFile4readEPvj+0x200>
    2d14:	ec cf       	rjmp	.-40     	; 0x2cee <_ZN6SdFile4readEPvj+0x27a>
    2d16:	40 e0       	ldi	r20, 0x00	; 0
    2d18:	0e 94 b8 1c 	call	0x3970	; 0x3970 <_ZN8SdVolume13cacheRawBlockEmh>
    2d1c:	81 11       	cpse	r24, r1
    2d1e:	ad cf       	rjmp	.-166    	; 0x2c7a <_ZN6SdFile4readEPvj+0x206>
    2d20:	e9 cf       	rjmp	.-46     	; 0x2cf4 <_ZN6SdFile4readEPvj+0x280>
    2d22:	26 96       	adiw	r28, 0x06	; 6
    2d24:	0f b6       	in	r0, 0x3f	; 63
    2d26:	f8 94       	cli
    2d28:	de bf       	out	0x3e, r29	; 62
    2d2a:	0f be       	out	0x3f, r0	; 63
    2d2c:	cd bf       	out	0x3d, r28	; 61
    2d2e:	df 91       	pop	r29
    2d30:	cf 91       	pop	r28
    2d32:	1f 91       	pop	r17
    2d34:	0f 91       	pop	r16
    2d36:	ff 90       	pop	r15
    2d38:	ef 90       	pop	r14
    2d3a:	df 90       	pop	r13
    2d3c:	cf 90       	pop	r12
    2d3e:	bf 90       	pop	r11
    2d40:	af 90       	pop	r10
    2d42:	9f 90       	pop	r9
    2d44:	8f 90       	pop	r8
    2d46:	7f 90       	pop	r7
    2d48:	6f 90       	pop	r6
    2d4a:	5f 90       	pop	r5
    2d4c:	4f 90       	pop	r4
    2d4e:	3f 90       	pop	r3
    2d50:	2f 90       	pop	r2
    2d52:	08 95       	ret

00002d54 <_ZN6SdFile12readDirCacheEv>:
    2d54:	cf 92       	push	r12
    2d56:	df 92       	push	r13
    2d58:	ef 92       	push	r14
    2d5a:	ff 92       	push	r15
    2d5c:	0f 93       	push	r16
    2d5e:	1f 93       	push	r17
    2d60:	cf 93       	push	r28
    2d62:	df 93       	push	r29
    2d64:	1f 92       	push	r1
    2d66:	cd b7       	in	r28, 0x3d	; 61
    2d68:	de b7       	in	r29, 0x3e	; 62
    2d6a:	8c 01       	movw	r16, r24
    2d6c:	fc 01       	movw	r30, r24
    2d6e:	85 81       	ldd	r24, Z+5	; 0x05
    2d70:	82 30       	cpi	r24, 0x02	; 2
    2d72:	60 f1       	brcs	.+88     	; 0x2dcc <_ZN6SdFile12readDirCacheEv+0x78>
    2d74:	c2 84       	ldd	r12, Z+10	; 0x0a
    2d76:	d3 84       	ldd	r13, Z+11	; 0x0b
    2d78:	e4 84       	ldd	r14, Z+12	; 0x0c
    2d7a:	f5 84       	ldd	r15, Z+13	; 0x0d
    2d7c:	41 e0       	ldi	r20, 0x01	; 1
    2d7e:	50 e0       	ldi	r21, 0x00	; 0
    2d80:	be 01       	movw	r22, r28
    2d82:	6f 5f       	subi	r22, 0xFF	; 255
    2d84:	7f 4f       	sbci	r23, 0xFF	; 255
    2d86:	c8 01       	movw	r24, r16
    2d88:	0e 94 3a 15 	call	0x2a74	; 0x2a74 <_ZN6SdFile4readEPvj>
    2d8c:	01 97       	sbiw	r24, 0x01	; 1
    2d8e:	09 f5       	brne	.+66     	; 0x2dd2 <_ZN6SdFile12readDirCacheEv+0x7e>
    2d90:	f8 01       	movw	r30, r16
    2d92:	82 85       	ldd	r24, Z+10	; 0x0a
    2d94:	93 85       	ldd	r25, Z+11	; 0x0b
    2d96:	a4 85       	ldd	r26, Z+12	; 0x0c
    2d98:	b5 85       	ldd	r27, Z+13	; 0x0d
    2d9a:	4f 96       	adiw	r24, 0x1f	; 31
    2d9c:	a1 1d       	adc	r26, r1
    2d9e:	b1 1d       	adc	r27, r1
    2da0:	82 87       	std	Z+10, r24	; 0x0a
    2da2:	93 87       	std	Z+11, r25	; 0x0b
    2da4:	a4 87       	std	Z+12, r26	; 0x0c
    2da6:	b5 87       	std	Z+13, r27	; 0x0d
    2da8:	d7 01       	movw	r26, r14
    2daa:	c6 01       	movw	r24, r12
    2dac:	68 94       	set
    2dae:	14 f8       	bld	r1, 4
    2db0:	b6 95       	lsr	r27
    2db2:	a7 95       	ror	r26
    2db4:	97 95       	ror	r25
    2db6:	87 95       	ror	r24
    2db8:	16 94       	lsr	r1
    2dba:	d1 f7       	brne	.-12     	; 0x2db0 <_ZN6SdFile12readDirCacheEv+0x5c>
    2dbc:	8f 70       	andi	r24, 0x0F	; 15
    2dbe:	f0 e2       	ldi	r31, 0x20	; 32
    2dc0:	8f 9f       	mul	r24, r31
    2dc2:	c0 01       	movw	r24, r0
    2dc4:	11 24       	eor	r1, r1
    2dc6:	8f 50       	subi	r24, 0x0F	; 15
    2dc8:	9d 4f       	sbci	r25, 0xFD	; 253
    2dca:	05 c0       	rjmp	.+10     	; 0x2dd6 <_ZN6SdFile12readDirCacheEv+0x82>
    2dcc:	80 e0       	ldi	r24, 0x00	; 0
    2dce:	90 e0       	ldi	r25, 0x00	; 0
    2dd0:	02 c0       	rjmp	.+4      	; 0x2dd6 <_ZN6SdFile12readDirCacheEv+0x82>
    2dd2:	80 e0       	ldi	r24, 0x00	; 0
    2dd4:	90 e0       	ldi	r25, 0x00	; 0
    2dd6:	0f 90       	pop	r0
    2dd8:	df 91       	pop	r29
    2dda:	cf 91       	pop	r28
    2ddc:	1f 91       	pop	r17
    2dde:	0f 91       	pop	r16
    2de0:	ff 90       	pop	r15
    2de2:	ef 90       	pop	r14
    2de4:	df 90       	pop	r13
    2de6:	cf 90       	pop	r12
    2de8:	08 95       	ret

00002dea <_ZN6SdFile7seekSetEm>:
    2dea:	4f 92       	push	r4
    2dec:	5f 92       	push	r5
    2dee:	6f 92       	push	r6
    2df0:	7f 92       	push	r7
    2df2:	8f 92       	push	r8
    2df4:	9f 92       	push	r9
    2df6:	af 92       	push	r10
    2df8:	bf 92       	push	r11
    2dfa:	cf 92       	push	r12
    2dfc:	df 92       	push	r13
    2dfe:	ef 92       	push	r14
    2e00:	ff 92       	push	r15
    2e02:	0f 93       	push	r16
    2e04:	1f 93       	push	r17
    2e06:	cf 93       	push	r28
    2e08:	df 93       	push	r29
    2e0a:	ec 01       	movw	r28, r24
    2e0c:	4a 01       	movw	r8, r20
    2e0e:	5b 01       	movw	r10, r22
    2e10:	2d 81       	ldd	r18, Y+5	; 0x05
    2e12:	22 23       	and	r18, r18
    2e14:	09 f4       	brne	.+2      	; 0x2e18 <_ZN6SdFile7seekSetEm+0x2e>
    2e16:	81 c0       	rjmp	.+258    	; 0x2f1a <_ZN6SdFile7seekSetEm+0x130>
    2e18:	8b 89       	ldd	r24, Y+19	; 0x13
    2e1a:	9c 89       	ldd	r25, Y+20	; 0x14
    2e1c:	ad 89       	ldd	r26, Y+21	; 0x15
    2e1e:	be 89       	ldd	r27, Y+22	; 0x16
    2e20:	84 17       	cp	r24, r20
    2e22:	95 07       	cpc	r25, r21
    2e24:	a6 07       	cpc	r26, r22
    2e26:	b7 07       	cpc	r27, r23
    2e28:	08 f4       	brcc	.+2      	; 0x2e2c <_ZN6SdFile7seekSetEm+0x42>
    2e2a:	79 c0       	rjmp	.+242    	; 0x2f1e <_ZN6SdFile7seekSetEm+0x134>
    2e2c:	22 30       	cpi	r18, 0x02	; 2
    2e2e:	31 f4       	brne	.+12     	; 0x2e3c <_ZN6SdFile7seekSetEm+0x52>
    2e30:	4a 87       	std	Y+10, r20	; 0x0a
    2e32:	5b 87       	std	Y+11, r21	; 0x0b
    2e34:	6c 87       	std	Y+12, r22	; 0x0c
    2e36:	7d 87       	std	Y+13, r23	; 0x0d
    2e38:	81 e0       	ldi	r24, 0x01	; 1
    2e3a:	74 c0       	rjmp	.+232    	; 0x2f24 <_ZN6SdFile7seekSetEm+0x13a>
    2e3c:	41 15       	cp	r20, r1
    2e3e:	51 05       	cpc	r21, r1
    2e40:	61 05       	cpc	r22, r1
    2e42:	71 05       	cpc	r23, r1
    2e44:	51 f4       	brne	.+20     	; 0x2e5a <_ZN6SdFile7seekSetEm+0x70>
    2e46:	1e 82       	std	Y+6, r1	; 0x06
    2e48:	1f 82       	std	Y+7, r1	; 0x07
    2e4a:	18 86       	std	Y+8, r1	; 0x08
    2e4c:	19 86       	std	Y+9, r1	; 0x09
    2e4e:	1a 86       	std	Y+10, r1	; 0x0a
    2e50:	1b 86       	std	Y+11, r1	; 0x0b
    2e52:	1c 86       	std	Y+12, r1	; 0x0c
    2e54:	1d 86       	std	Y+13, r1	; 0x0d
    2e56:	81 e0       	ldi	r24, 0x01	; 1
    2e58:	65 c0       	rjmp	.+202    	; 0x2f24 <_ZN6SdFile7seekSetEm+0x13a>
    2e5a:	8a 85       	ldd	r24, Y+10	; 0x0a
    2e5c:	9b 85       	ldd	r25, Y+11	; 0x0b
    2e5e:	ac 85       	ldd	r26, Y+12	; 0x0c
    2e60:	bd 85       	ldd	r27, Y+13	; 0x0d
    2e62:	eb 8d       	ldd	r30, Y+27	; 0x1b
    2e64:	fc 8d       	ldd	r31, Y+28	; 0x1c
    2e66:	c5 84       	ldd	r12, Z+13	; 0x0d
    2e68:	d1 2c       	mov	r13, r1
    2e6a:	29 e0       	ldi	r18, 0x09	; 9
    2e6c:	c2 0e       	add	r12, r18
    2e6e:	d1 1c       	adc	r13, r1
    2e70:	ac 01       	movw	r20, r24
    2e72:	bd 01       	movw	r22, r26
    2e74:	41 50       	subi	r20, 0x01	; 1
    2e76:	51 09       	sbc	r21, r1
    2e78:	61 09       	sbc	r22, r1
    2e7a:	71 09       	sbc	r23, r1
    2e7c:	0c 2c       	mov	r0, r12
    2e7e:	04 c0       	rjmp	.+8      	; 0x2e88 <_ZN6SdFile7seekSetEm+0x9e>
    2e80:	76 95       	lsr	r23
    2e82:	67 95       	ror	r22
    2e84:	57 95       	ror	r21
    2e86:	47 95       	ror	r20
    2e88:	0a 94       	dec	r0
    2e8a:	d2 f7       	brpl	.-12     	; 0x2e80 <_ZN6SdFile7seekSetEm+0x96>
    2e8c:	95 01       	movw	r18, r10
    2e8e:	84 01       	movw	r16, r8
    2e90:	01 50       	subi	r16, 0x01	; 1
    2e92:	11 09       	sbc	r17, r1
    2e94:	21 09       	sbc	r18, r1
    2e96:	31 09       	sbc	r19, r1
    2e98:	28 01       	movw	r4, r16
    2e9a:	39 01       	movw	r6, r18
    2e9c:	04 c0       	rjmp	.+8      	; 0x2ea6 <_ZN6SdFile7seekSetEm+0xbc>
    2e9e:	76 94       	lsr	r7
    2ea0:	67 94       	ror	r6
    2ea2:	57 94       	ror	r5
    2ea4:	47 94       	ror	r4
    2ea6:	ca 94       	dec	r12
    2ea8:	d2 f7       	brpl	.-12     	; 0x2e9e <_ZN6SdFile7seekSetEm+0xb4>
    2eaa:	73 01       	movw	r14, r6
    2eac:	62 01       	movw	r12, r4
    2eae:	44 16       	cp	r4, r20
    2eb0:	55 06       	cpc	r5, r21
    2eb2:	66 06       	cpc	r6, r22
    2eb4:	77 06       	cpc	r7, r23
    2eb6:	20 f0       	brcs	.+8      	; 0x2ec0 <_ZN6SdFile7seekSetEm+0xd6>
    2eb8:	89 2b       	or	r24, r25
    2eba:	8a 2b       	or	r24, r26
    2ebc:	8b 2b       	or	r24, r27
    2ebe:	49 f4       	brne	.+18     	; 0x2ed2 <_ZN6SdFile7seekSetEm+0xe8>
    2ec0:	8f 89       	ldd	r24, Y+23	; 0x17
    2ec2:	98 8d       	ldd	r25, Y+24	; 0x18
    2ec4:	a9 8d       	ldd	r26, Y+25	; 0x19
    2ec6:	ba 8d       	ldd	r27, Y+26	; 0x1a
    2ec8:	8e 83       	std	Y+6, r24	; 0x06
    2eca:	9f 83       	std	Y+7, r25	; 0x07
    2ecc:	a8 87       	std	Y+8, r26	; 0x08
    2ece:	b9 87       	std	Y+9, r27	; 0x09
    2ed0:	16 c0       	rjmp	.+44     	; 0x2efe <_ZN6SdFile7seekSetEm+0x114>
    2ed2:	c4 1a       	sub	r12, r20
    2ed4:	d5 0a       	sbc	r13, r21
    2ed6:	e6 0a       	sbc	r14, r22
    2ed8:	f7 0a       	sbc	r15, r23
    2eda:	11 c0       	rjmp	.+34     	; 0x2efe <_ZN6SdFile7seekSetEm+0x114>
    2edc:	4e 81       	ldd	r20, Y+6	; 0x06
    2ede:	5f 81       	ldd	r21, Y+7	; 0x07
    2ee0:	68 85       	ldd	r22, Y+8	; 0x08
    2ee2:	79 85       	ldd	r23, Y+9	; 0x09
    2ee4:	98 01       	movw	r18, r16
    2ee6:	8b 8d       	ldd	r24, Y+27	; 0x1b
    2ee8:	9c 8d       	ldd	r25, Y+28	; 0x1c
    2eea:	0e 94 1c 1d 	call	0x3a38	; 0x3a38 <_ZNK8SdVolume6fatGetEmPm>
    2eee:	21 e0       	ldi	r18, 0x01	; 1
    2ef0:	c2 1a       	sub	r12, r18
    2ef2:	d1 08       	sbc	r13, r1
    2ef4:	e1 08       	sbc	r14, r1
    2ef6:	f1 08       	sbc	r15, r1
    2ef8:	81 11       	cpse	r24, r1
    2efa:	04 c0       	rjmp	.+8      	; 0x2f04 <_ZN6SdFile7seekSetEm+0x11a>
    2efc:	12 c0       	rjmp	.+36     	; 0x2f22 <_ZN6SdFile7seekSetEm+0x138>
    2efe:	8e 01       	movw	r16, r28
    2f00:	0a 5f       	subi	r16, 0xFA	; 250
    2f02:	1f 4f       	sbci	r17, 0xFF	; 255
    2f04:	c1 14       	cp	r12, r1
    2f06:	d1 04       	cpc	r13, r1
    2f08:	e1 04       	cpc	r14, r1
    2f0a:	f1 04       	cpc	r15, r1
    2f0c:	39 f7       	brne	.-50     	; 0x2edc <_ZN6SdFile7seekSetEm+0xf2>
    2f0e:	8a 86       	std	Y+10, r8	; 0x0a
    2f10:	9b 86       	std	Y+11, r9	; 0x0b
    2f12:	ac 86       	std	Y+12, r10	; 0x0c
    2f14:	bd 86       	std	Y+13, r11	; 0x0d
    2f16:	81 e0       	ldi	r24, 0x01	; 1
    2f18:	05 c0       	rjmp	.+10     	; 0x2f24 <_ZN6SdFile7seekSetEm+0x13a>
    2f1a:	80 e0       	ldi	r24, 0x00	; 0
    2f1c:	03 c0       	rjmp	.+6      	; 0x2f24 <_ZN6SdFile7seekSetEm+0x13a>
    2f1e:	80 e0       	ldi	r24, 0x00	; 0
    2f20:	01 c0       	rjmp	.+2      	; 0x2f24 <_ZN6SdFile7seekSetEm+0x13a>
    2f22:	80 e0       	ldi	r24, 0x00	; 0
    2f24:	df 91       	pop	r29
    2f26:	cf 91       	pop	r28
    2f28:	1f 91       	pop	r17
    2f2a:	0f 91       	pop	r16
    2f2c:	ff 90       	pop	r15
    2f2e:	ef 90       	pop	r14
    2f30:	df 90       	pop	r13
    2f32:	cf 90       	pop	r12
    2f34:	bf 90       	pop	r11
    2f36:	af 90       	pop	r10
    2f38:	9f 90       	pop	r9
    2f3a:	8f 90       	pop	r8
    2f3c:	7f 90       	pop	r7
    2f3e:	6f 90       	pop	r6
    2f40:	5f 90       	pop	r5
    2f42:	4f 90       	pop	r4
    2f44:	08 95       	ret

00002f46 <_ZN6SdFile4syncEv>:
    2f46:	0f 93       	push	r16
    2f48:	1f 93       	push	r17
    2f4a:	cf 93       	push	r28
    2f4c:	df 93       	push	r29
    2f4e:	ec 01       	movw	r28, r24
    2f50:	8d 81       	ldd	r24, Y+5	; 0x05
    2f52:	88 23       	and	r24, r24
    2f54:	c1 f1       	breq	.+112    	; 0x2fc6 <_ZN6SdFile4syncEv+0x80>
    2f56:	8c 81       	ldd	r24, Y+4	; 0x04
    2f58:	88 23       	and	r24, r24
    2f5a:	94 f5       	brge	.+100    	; 0x2fc0 <_ZN6SdFile4syncEv+0x7a>
    2f5c:	61 e0       	ldi	r22, 0x01	; 1
    2f5e:	ce 01       	movw	r24, r28
    2f60:	0e 94 7f 14 	call	0x28fe	; 0x28fe <_ZN6SdFile13cacheDirEntryEh>
    2f64:	8c 01       	movw	r16, r24
    2f66:	00 97       	sbiw	r24, 0x00	; 0
    2f68:	81 f1       	breq	.+96     	; 0x2fca <_ZN6SdFile4syncEv+0x84>
    2f6a:	8d 81       	ldd	r24, Y+5	; 0x05
    2f6c:	82 30       	cpi	r24, 0x02	; 2
    2f6e:	48 f4       	brcc	.+18     	; 0x2f82 <_ZN6SdFile4syncEv+0x3c>
    2f70:	8b 89       	ldd	r24, Y+19	; 0x13
    2f72:	9c 89       	ldd	r25, Y+20	; 0x14
    2f74:	ad 89       	ldd	r26, Y+21	; 0x15
    2f76:	be 89       	ldd	r27, Y+22	; 0x16
    2f78:	f8 01       	movw	r30, r16
    2f7a:	84 8f       	std	Z+28, r24	; 0x1c
    2f7c:	95 8f       	std	Z+29, r25	; 0x1d
    2f7e:	a6 8f       	std	Z+30, r26	; 0x1e
    2f80:	b7 8f       	std	Z+31, r27	; 0x1f
    2f82:	8f 89       	ldd	r24, Y+23	; 0x17
    2f84:	98 8d       	ldd	r25, Y+24	; 0x18
    2f86:	f8 01       	movw	r30, r16
    2f88:	93 8f       	std	Z+27, r25	; 0x1b
    2f8a:	82 8f       	std	Z+26, r24	; 0x1a
    2f8c:	4f 89       	ldd	r20, Y+23	; 0x17
    2f8e:	58 8d       	ldd	r21, Y+24	; 0x18
    2f90:	69 8d       	ldd	r22, Y+25	; 0x19
    2f92:	7a 8d       	ldd	r23, Y+26	; 0x1a
    2f94:	75 8b       	std	Z+21, r23	; 0x15
    2f96:	64 8b       	std	Z+20, r22	; 0x14
    2f98:	e0 91 e8 02 	lds	r30, 0x02E8
    2f9c:	f0 91 e9 02 	lds	r31, 0x02E9
    2fa0:	30 97       	sbiw	r30, 0x00	; 0
    2fa2:	59 f0       	breq	.+22     	; 0x2fba <_ZN6SdFile4syncEv+0x74>
    2fa4:	b8 01       	movw	r22, r16
    2fa6:	6a 5e       	subi	r22, 0xEA	; 234
    2fa8:	7f 4f       	sbci	r23, 0xFF	; 255
    2faa:	c8 01       	movw	r24, r16
    2fac:	48 96       	adiw	r24, 0x18	; 24
    2fae:	09 95       	icall
    2fb0:	f8 01       	movw	r30, r16
    2fb2:	80 8d       	ldd	r24, Z+24	; 0x18
    2fb4:	91 8d       	ldd	r25, Z+25	; 0x19
    2fb6:	93 8b       	std	Z+19, r25	; 0x13
    2fb8:	82 8b       	std	Z+18, r24	; 0x12
    2fba:	8c 81       	ldd	r24, Y+4	; 0x04
    2fbc:	8f 77       	andi	r24, 0x7F	; 127
    2fbe:	8c 83       	std	Y+4, r24	; 0x04
    2fc0:	0e 94 79 1c 	call	0x38f2	; 0x38f2 <_ZN8SdVolume10cacheFlushEv>
    2fc4:	03 c0       	rjmp	.+6      	; 0x2fcc <_ZN6SdFile4syncEv+0x86>
    2fc6:	80 e0       	ldi	r24, 0x00	; 0
    2fc8:	01 c0       	rjmp	.+2      	; 0x2fcc <_ZN6SdFile4syncEv+0x86>
    2fca:	80 e0       	ldi	r24, 0x00	; 0
    2fcc:	df 91       	pop	r29
    2fce:	cf 91       	pop	r28
    2fd0:	1f 91       	pop	r17
    2fd2:	0f 91       	pop	r16
    2fd4:	08 95       	ret

00002fd6 <_ZN6SdFile5closeEv>:
    2fd6:	cf 93       	push	r28
    2fd8:	df 93       	push	r29
    2fda:	ec 01       	movw	r28, r24
    2fdc:	0e 94 a3 17 	call	0x2f46	; 0x2f46 <_ZN6SdFile4syncEv>
    2fe0:	88 23       	and	r24, r24
    2fe2:	19 f0       	breq	.+6      	; 0x2fea <_ZN6SdFile5closeEv+0x14>
    2fe4:	1d 82       	std	Y+5, r1	; 0x05
    2fe6:	81 e0       	ldi	r24, 0x01	; 1
    2fe8:	01 c0       	rjmp	.+2      	; 0x2fec <_ZN6SdFile5closeEv+0x16>
    2fea:	80 e0       	ldi	r24, 0x00	; 0
    2fec:	df 91       	pop	r29
    2fee:	cf 91       	pop	r28
    2ff0:	08 95       	ret

00002ff2 <_ZN6SdFile8truncateEm>:
    2ff2:	4f 92       	push	r4
    2ff4:	5f 92       	push	r5
    2ff6:	6f 92       	push	r6
    2ff8:	7f 92       	push	r7
    2ffa:	af 92       	push	r10
    2ffc:	bf 92       	push	r11
    2ffe:	cf 92       	push	r12
    3000:	df 92       	push	r13
    3002:	ef 92       	push	r14
    3004:	ff 92       	push	r15
    3006:	0f 93       	push	r16
    3008:	1f 93       	push	r17
    300a:	cf 93       	push	r28
    300c:	df 93       	push	r29
    300e:	00 d0       	rcall	.+0      	; 0x3010 <_ZN6SdFile8truncateEm+0x1e>
    3010:	00 d0       	rcall	.+0      	; 0x3012 <_ZN6SdFile8truncateEm+0x20>
    3012:	cd b7       	in	r28, 0x3d	; 61
    3014:	de b7       	in	r29, 0x3e	; 62
    3016:	5c 01       	movw	r10, r24
    3018:	6a 01       	movw	r12, r20
    301a:	7b 01       	movw	r14, r22
    301c:	dc 01       	movw	r26, r24
    301e:	15 96       	adiw	r26, 0x05	; 5
    3020:	8c 91       	ld	r24, X
    3022:	15 97       	sbiw	r26, 0x05	; 5
    3024:	81 30       	cpi	r24, 0x01	; 1
    3026:	09 f0       	breq	.+2      	; 0x302a <_ZN6SdFile8truncateEm+0x38>
    3028:	9d c0       	rjmp	.+314    	; 0x3164 <_ZN6SdFile8truncateEm+0x172>
    302a:	14 96       	adiw	r26, 0x04	; 4
    302c:	8c 91       	ld	r24, X
    302e:	14 97       	sbiw	r26, 0x04	; 4
    3030:	81 ff       	sbrs	r24, 1
    3032:	9a c0       	rjmp	.+308    	; 0x3168 <_ZN6SdFile8truncateEm+0x176>
    3034:	53 96       	adiw	r26, 0x13	; 19
    3036:	8d 91       	ld	r24, X+
    3038:	9d 91       	ld	r25, X+
    303a:	0d 90       	ld	r0, X+
    303c:	bc 91       	ld	r27, X
    303e:	a0 2d       	mov	r26, r0
    3040:	84 17       	cp	r24, r20
    3042:	95 07       	cpc	r25, r21
    3044:	a6 07       	cpc	r26, r22
    3046:	b7 07       	cpc	r27, r23
    3048:	08 f4       	brcc	.+2      	; 0x304c <_ZN6SdFile8truncateEm+0x5a>
    304a:	90 c0       	rjmp	.+288    	; 0x316c <_ZN6SdFile8truncateEm+0x17a>
    304c:	89 2b       	or	r24, r25
    304e:	8a 2b       	or	r24, r26
    3050:	8b 2b       	or	r24, r27
    3052:	09 f4       	brne	.+2      	; 0x3056 <_ZN6SdFile8truncateEm+0x64>
    3054:	8d c0       	rjmp	.+282    	; 0x3170 <_ZN6SdFile8truncateEm+0x17e>
    3056:	f5 01       	movw	r30, r10
    3058:	42 84       	ldd	r4, Z+10	; 0x0a
    305a:	53 84       	ldd	r5, Z+11	; 0x0b
    305c:	64 84       	ldd	r6, Z+12	; 0x0c
    305e:	75 84       	ldd	r7, Z+13	; 0x0d
    3060:	c5 01       	movw	r24, r10
    3062:	0e 94 f5 16 	call	0x2dea	; 0x2dea <_ZN6SdFile7seekSetEm>
    3066:	88 23       	and	r24, r24
    3068:	09 f4       	brne	.+2      	; 0x306c <_ZN6SdFile8truncateEm+0x7a>
    306a:	84 c0       	rjmp	.+264    	; 0x3174 <_ZN6SdFile8truncateEm+0x182>
    306c:	c1 14       	cp	r12, r1
    306e:	d1 04       	cpc	r13, r1
    3070:	e1 04       	cpc	r14, r1
    3072:	f1 04       	cpc	r15, r1
    3074:	b1 f4       	brne	.+44     	; 0x30a2 <_ZN6SdFile8truncateEm+0xb0>
    3076:	d5 01       	movw	r26, r10
    3078:	57 96       	adiw	r26, 0x17	; 23
    307a:	4d 91       	ld	r20, X+
    307c:	5d 91       	ld	r21, X+
    307e:	6d 91       	ld	r22, X+
    3080:	7c 91       	ld	r23, X
    3082:	5a 97       	sbiw	r26, 0x1a	; 26
    3084:	5b 96       	adiw	r26, 0x1b	; 27
    3086:	8d 91       	ld	r24, X+
    3088:	9c 91       	ld	r25, X
    308a:	5c 97       	sbiw	r26, 0x1c	; 28
    308c:	0e 94 f9 1f 	call	0x3ff2	; 0x3ff2 <_ZN8SdVolume9freeChainEm>
    3090:	88 23       	and	r24, r24
    3092:	09 f4       	brne	.+2      	; 0x3096 <_ZN6SdFile8truncateEm+0xa4>
    3094:	71 c0       	rjmp	.+226    	; 0x3178 <_ZN6SdFile8truncateEm+0x186>
    3096:	f5 01       	movw	r30, r10
    3098:	17 8a       	std	Z+23, r1	; 0x17
    309a:	10 8e       	std	Z+24, r1	; 0x18
    309c:	11 8e       	std	Z+25, r1	; 0x19
    309e:	12 8e       	std	Z+26, r1	; 0x1a
    30a0:	42 c0       	rjmp	.+132    	; 0x3126 <_ZN6SdFile8truncateEm+0x134>
    30a2:	d5 01       	movw	r26, r10
    30a4:	16 96       	adiw	r26, 0x06	; 6
    30a6:	4d 91       	ld	r20, X+
    30a8:	5d 91       	ld	r21, X+
    30aa:	6d 91       	ld	r22, X+
    30ac:	7c 91       	ld	r23, X
    30ae:	19 97       	sbiw	r26, 0x09	; 9
    30b0:	9e 01       	movw	r18, r28
    30b2:	2f 5f       	subi	r18, 0xFF	; 255
    30b4:	3f 4f       	sbci	r19, 0xFF	; 255
    30b6:	5b 96       	adiw	r26, 0x1b	; 27
    30b8:	8d 91       	ld	r24, X+
    30ba:	9c 91       	ld	r25, X
    30bc:	5c 97       	sbiw	r26, 0x1c	; 28
    30be:	0e 94 1c 1d 	call	0x3a38	; 0x3a38 <_ZNK8SdVolume6fatGetEmPm>
    30c2:	88 23       	and	r24, r24
    30c4:	71 f1       	breq	.+92     	; 0x3122 <_ZN6SdFile8truncateEm+0x130>
    30c6:	49 81       	ldd	r20, Y+1	; 0x01
    30c8:	5a 81       	ldd	r21, Y+2	; 0x02
    30ca:	6b 81       	ldd	r22, Y+3	; 0x03
    30cc:	7c 81       	ldd	r23, Y+4	; 0x04
    30ce:	d5 01       	movw	r26, r10
    30d0:	5b 96       	adiw	r26, 0x1b	; 27
    30d2:	ed 91       	ld	r30, X+
    30d4:	fc 91       	ld	r31, X
    30d6:	5c 97       	sbiw	r26, 0x1c	; 28
    30d8:	87 89       	ldd	r24, Z+23	; 0x17
    30da:	80 31       	cpi	r24, 0x10	; 16
    30dc:	29 f4       	brne	.+10     	; 0x30e8 <_ZN6SdFile8truncateEm+0xf6>
    30de:	08 ef       	ldi	r16, 0xF8	; 248
    30e0:	1f ef       	ldi	r17, 0xFF	; 255
    30e2:	20 e0       	ldi	r18, 0x00	; 0
    30e4:	30 e0       	ldi	r19, 0x00	; 0
    30e6:	04 c0       	rjmp	.+8      	; 0x30f0 <_ZN6SdFile8truncateEm+0xfe>
    30e8:	08 ef       	ldi	r16, 0xF8	; 248
    30ea:	1f ef       	ldi	r17, 0xFF	; 255
    30ec:	2f ef       	ldi	r18, 0xFF	; 255
    30ee:	3f e0       	ldi	r19, 0x0F	; 15
    30f0:	40 17       	cp	r20, r16
    30f2:	51 07       	cpc	r21, r17
    30f4:	62 07       	cpc	r22, r18
    30f6:	73 07       	cpc	r23, r19
    30f8:	b0 f4       	brcc	.+44     	; 0x3126 <_ZN6SdFile8truncateEm+0x134>
    30fa:	cf 01       	movw	r24, r30
    30fc:	0e 94 f9 1f 	call	0x3ff2	; 0x3ff2 <_ZN8SdVolume9freeChainEm>
    3100:	88 23       	and	r24, r24
    3102:	79 f0       	breq	.+30     	; 0x3122 <_ZN6SdFile8truncateEm+0x130>
    3104:	f5 01       	movw	r30, r10
    3106:	46 81       	ldd	r20, Z+6	; 0x06
    3108:	57 81       	ldd	r21, Z+7	; 0x07
    310a:	60 85       	ldd	r22, Z+8	; 0x08
    310c:	71 85       	ldd	r23, Z+9	; 0x09
    310e:	0f ef       	ldi	r16, 0xFF	; 255
    3110:	1f ef       	ldi	r17, 0xFF	; 255
    3112:	2f ef       	ldi	r18, 0xFF	; 255
    3114:	3f e0       	ldi	r19, 0x0F	; 15
    3116:	83 8d       	ldd	r24, Z+27	; 0x1b
    3118:	94 8d       	ldd	r25, Z+28	; 0x1c
    311a:	0e 94 2d 1e 	call	0x3c5a	; 0x3c5a <_ZN8SdVolume6fatPutEmm>
    311e:	81 11       	cpse	r24, r1
    3120:	02 c0       	rjmp	.+4      	; 0x3126 <_ZN6SdFile8truncateEm+0x134>
    3122:	80 e0       	ldi	r24, 0x00	; 0
    3124:	2c c0       	rjmp	.+88     	; 0x317e <_ZN6SdFile8truncateEm+0x18c>
    3126:	d5 01       	movw	r26, r10
    3128:	53 96       	adiw	r26, 0x13	; 19
    312a:	cd 92       	st	X+, r12
    312c:	dd 92       	st	X+, r13
    312e:	ed 92       	st	X+, r14
    3130:	fc 92       	st	X, r15
    3132:	56 97       	sbiw	r26, 0x16	; 22
    3134:	14 96       	adiw	r26, 0x04	; 4
    3136:	8c 91       	ld	r24, X
    3138:	14 97       	sbiw	r26, 0x04	; 4
    313a:	80 68       	ori	r24, 0x80	; 128
    313c:	14 96       	adiw	r26, 0x04	; 4
    313e:	8c 93       	st	X, r24
    3140:	c5 01       	movw	r24, r10
    3142:	0e 94 a3 17 	call	0x2f46	; 0x2f46 <_ZN6SdFile4syncEv>
    3146:	88 23       	and	r24, r24
    3148:	c9 f0       	breq	.+50     	; 0x317c <_ZN6SdFile8truncateEm+0x18a>
    314a:	b7 01       	movw	r22, r14
    314c:	a6 01       	movw	r20, r12
    314e:	4c 14       	cp	r4, r12
    3150:	5d 04       	cpc	r5, r13
    3152:	6e 04       	cpc	r6, r14
    3154:	7f 04       	cpc	r7, r15
    3156:	10 f4       	brcc	.+4      	; 0x315c <_ZN6SdFile8truncateEm+0x16a>
    3158:	b3 01       	movw	r22, r6
    315a:	a2 01       	movw	r20, r4
    315c:	c5 01       	movw	r24, r10
    315e:	0e 94 f5 16 	call	0x2dea	; 0x2dea <_ZN6SdFile7seekSetEm>
    3162:	0d c0       	rjmp	.+26     	; 0x317e <_ZN6SdFile8truncateEm+0x18c>
    3164:	80 e0       	ldi	r24, 0x00	; 0
    3166:	0b c0       	rjmp	.+22     	; 0x317e <_ZN6SdFile8truncateEm+0x18c>
    3168:	80 e0       	ldi	r24, 0x00	; 0
    316a:	09 c0       	rjmp	.+18     	; 0x317e <_ZN6SdFile8truncateEm+0x18c>
    316c:	80 e0       	ldi	r24, 0x00	; 0
    316e:	07 c0       	rjmp	.+14     	; 0x317e <_ZN6SdFile8truncateEm+0x18c>
    3170:	81 e0       	ldi	r24, 0x01	; 1
    3172:	05 c0       	rjmp	.+10     	; 0x317e <_ZN6SdFile8truncateEm+0x18c>
    3174:	80 e0       	ldi	r24, 0x00	; 0
    3176:	03 c0       	rjmp	.+6      	; 0x317e <_ZN6SdFile8truncateEm+0x18c>
    3178:	80 e0       	ldi	r24, 0x00	; 0
    317a:	01 c0       	rjmp	.+2      	; 0x317e <_ZN6SdFile8truncateEm+0x18c>
    317c:	80 e0       	ldi	r24, 0x00	; 0
    317e:	0f 90       	pop	r0
    3180:	0f 90       	pop	r0
    3182:	0f 90       	pop	r0
    3184:	0f 90       	pop	r0
    3186:	df 91       	pop	r29
    3188:	cf 91       	pop	r28
    318a:	1f 91       	pop	r17
    318c:	0f 91       	pop	r16
    318e:	ff 90       	pop	r15
    3190:	ef 90       	pop	r14
    3192:	df 90       	pop	r13
    3194:	cf 90       	pop	r12
    3196:	bf 90       	pop	r11
    3198:	af 90       	pop	r10
    319a:	7f 90       	pop	r7
    319c:	6f 90       	pop	r6
    319e:	5f 90       	pop	r5
    31a0:	4f 90       	pop	r4
    31a2:	08 95       	ret

000031a4 <_ZN6SdFile15openCachedEntryEhh>:
    31a4:	ff 92       	push	r15
    31a6:	0f 93       	push	r16
    31a8:	1f 93       	push	r17
    31aa:	cf 93       	push	r28
    31ac:	df 93       	push	r29
    31ae:	ec 01       	movw	r28, r24
    31b0:	f4 2e       	mov	r15, r20
    31b2:	80 e2       	ldi	r24, 0x20	; 32
    31b4:	68 9f       	mul	r22, r24
    31b6:	f0 01       	movw	r30, r0
    31b8:	11 24       	eor	r1, r1
    31ba:	ef 50       	subi	r30, 0x0F	; 15
    31bc:	fd 4f       	sbci	r31, 0xFD	; 253
    31be:	83 85       	ldd	r24, Z+11	; 0x0b
    31c0:	81 71       	andi	r24, 0x11	; 17
    31c2:	21 f0       	breq	.+8      	; 0x31cc <_ZN6SdFile15openCachedEntryEhh+0x28>
    31c4:	84 2f       	mov	r24, r20
    31c6:	82 74       	andi	r24, 0x42	; 66
    31c8:	09 f0       	breq	.+2      	; 0x31cc <_ZN6SdFile15openCachedEntryEhh+0x28>
    31ca:	53 c0       	rjmp	.+166    	; 0x3272 <_ZN6SdFile15openCachedEntryEhh+0xce>
    31cc:	6a 8b       	std	Y+18, r22	; 0x12
    31ce:	80 91 07 01 	lds	r24, 0x0107
    31d2:	90 91 08 01 	lds	r25, 0x0108
    31d6:	a0 91 09 01 	lds	r26, 0x0109
    31da:	b0 91 0a 01 	lds	r27, 0x010A
    31de:	8e 87       	std	Y+14, r24	; 0x0e
    31e0:	9f 87       	std	Y+15, r25	; 0x0f
    31e2:	a8 8b       	std	Y+16, r26	; 0x10
    31e4:	b9 8b       	std	Y+17, r27	; 0x11
    31e6:	04 89       	ldd	r16, Z+20	; 0x14
    31e8:	15 89       	ldd	r17, Z+21	; 0x15
    31ea:	20 e0       	ldi	r18, 0x00	; 0
    31ec:	30 e0       	ldi	r19, 0x00	; 0
    31ee:	98 01       	movw	r18, r16
    31f0:	11 27       	eor	r17, r17
    31f2:	00 27       	eor	r16, r16
    31f4:	0f 8b       	std	Y+23, r16	; 0x17
    31f6:	18 8f       	std	Y+24, r17	; 0x18
    31f8:	29 8f       	std	Y+25, r18	; 0x19
    31fa:	3a 8f       	std	Y+26, r19	; 0x1a
    31fc:	42 8d       	ldd	r20, Z+26	; 0x1a
    31fe:	53 8d       	ldd	r21, Z+27	; 0x1b
    3200:	60 e0       	ldi	r22, 0x00	; 0
    3202:	70 e0       	ldi	r23, 0x00	; 0
    3204:	40 2b       	or	r20, r16
    3206:	51 2b       	or	r21, r17
    3208:	62 2b       	or	r22, r18
    320a:	73 2b       	or	r23, r19
    320c:	4f 8b       	std	Y+23, r20	; 0x17
    320e:	58 8f       	std	Y+24, r21	; 0x18
    3210:	69 8f       	std	Y+25, r22	; 0x19
    3212:	7a 8f       	std	Y+26, r23	; 0x1a
    3214:	83 85       	ldd	r24, Z+11	; 0x0b
    3216:	88 71       	andi	r24, 0x18	; 24
    3218:	59 f4       	brne	.+22     	; 0x3230 <_ZN6SdFile15openCachedEntryEhh+0x8c>
    321a:	84 8d       	ldd	r24, Z+28	; 0x1c
    321c:	95 8d       	ldd	r25, Z+29	; 0x1d
    321e:	a6 8d       	ldd	r26, Z+30	; 0x1e
    3220:	b7 8d       	ldd	r27, Z+31	; 0x1f
    3222:	8b 8b       	std	Y+19, r24	; 0x13
    3224:	9c 8b       	std	Y+20, r25	; 0x14
    3226:	ad 8b       	std	Y+21, r26	; 0x15
    3228:	be 8b       	std	Y+22, r27	; 0x16
    322a:	81 e0       	ldi	r24, 0x01	; 1
    322c:	8d 83       	std	Y+5, r24	; 0x05
    322e:	0d c0       	rjmp	.+26     	; 0x324a <_ZN6SdFile15openCachedEntryEhh+0xa6>
    3230:	80 31       	cpi	r24, 0x10	; 16
    3232:	09 f5       	brne	.+66     	; 0x3276 <_ZN6SdFile15openCachedEntryEhh+0xd2>
    3234:	9e 01       	movw	r18, r28
    3236:	2d 5e       	subi	r18, 0xED	; 237
    3238:	3f 4f       	sbci	r19, 0xFF	; 255
    323a:	8b 8d       	ldd	r24, Y+27	; 0x1b
    323c:	9c 8d       	ldd	r25, Y+28	; 0x1c
    323e:	0e 94 a7 1d 	call	0x3b4e	; 0x3b4e <_ZNK8SdVolume9chainSizeEmPm>
    3242:	88 23       	and	r24, r24
    3244:	d1 f0       	breq	.+52     	; 0x327a <_ZN6SdFile15openCachedEntryEhh+0xd6>
    3246:	84 e0       	ldi	r24, 0x04	; 4
    3248:	8d 83       	std	Y+5, r24	; 0x05
    324a:	8f 2d       	mov	r24, r15
    324c:	8f 70       	andi	r24, 0x0F	; 15
    324e:	8c 83       	std	Y+4, r24	; 0x04
    3250:	1e 82       	std	Y+6, r1	; 0x06
    3252:	1f 82       	std	Y+7, r1	; 0x07
    3254:	18 86       	std	Y+8, r1	; 0x08
    3256:	19 86       	std	Y+9, r1	; 0x09
    3258:	1a 86       	std	Y+10, r1	; 0x0a
    325a:	1b 86       	std	Y+11, r1	; 0x0b
    325c:	1c 86       	std	Y+12, r1	; 0x0c
    325e:	1d 86       	std	Y+13, r1	; 0x0d
    3260:	f6 fe       	sbrs	r15, 6
    3262:	0d c0       	rjmp	.+26     	; 0x327e <_ZN6SdFile15openCachedEntryEhh+0xda>
    3264:	40 e0       	ldi	r20, 0x00	; 0
    3266:	50 e0       	ldi	r21, 0x00	; 0
    3268:	ba 01       	movw	r22, r20
    326a:	ce 01       	movw	r24, r28
    326c:	0e 94 f9 17 	call	0x2ff2	; 0x2ff2 <_ZN6SdFile8truncateEm>
    3270:	07 c0       	rjmp	.+14     	; 0x3280 <_ZN6SdFile15openCachedEntryEhh+0xdc>
    3272:	80 e0       	ldi	r24, 0x00	; 0
    3274:	05 c0       	rjmp	.+10     	; 0x3280 <_ZN6SdFile15openCachedEntryEhh+0xdc>
    3276:	80 e0       	ldi	r24, 0x00	; 0
    3278:	03 c0       	rjmp	.+6      	; 0x3280 <_ZN6SdFile15openCachedEntryEhh+0xdc>
    327a:	80 e0       	ldi	r24, 0x00	; 0
    327c:	01 c0       	rjmp	.+2      	; 0x3280 <_ZN6SdFile15openCachedEntryEhh+0xdc>
    327e:	81 e0       	ldi	r24, 0x01	; 1
    3280:	df 91       	pop	r29
    3282:	cf 91       	pop	r28
    3284:	1f 91       	pop	r17
    3286:	0f 91       	pop	r16
    3288:	ff 90       	pop	r15
    328a:	08 95       	ret

0000328c <_ZN6SdFile4openEPS_PKch>:
    328c:	9f 92       	push	r9
    328e:	af 92       	push	r10
    3290:	bf 92       	push	r11
    3292:	cf 92       	push	r12
    3294:	df 92       	push	r13
    3296:	ef 92       	push	r14
    3298:	ff 92       	push	r15
    329a:	0f 93       	push	r16
    329c:	1f 93       	push	r17
    329e:	cf 93       	push	r28
    32a0:	df 93       	push	r29
    32a2:	cd b7       	in	r28, 0x3d	; 61
    32a4:	de b7       	in	r29, 0x3e	; 62
    32a6:	2b 97       	sbiw	r28, 0x0b	; 11
    32a8:	0f b6       	in	r0, 0x3f	; 63
    32aa:	f8 94       	cli
    32ac:	de bf       	out	0x3e, r29	; 62
    32ae:	0f be       	out	0x3f, r0	; 63
    32b0:	cd bf       	out	0x3d, r28	; 61
    32b2:	6c 01       	movw	r12, r24
    32b4:	7b 01       	movw	r14, r22
    32b6:	92 2e       	mov	r9, r18
    32b8:	fc 01       	movw	r30, r24
    32ba:	85 81       	ldd	r24, Z+5	; 0x05
    32bc:	81 11       	cpse	r24, r1
    32be:	c1 c0       	rjmp	.+386    	; 0x3442 <_ZN6SdFile4openEPS_PKch+0x1b6>
    32c0:	be 01       	movw	r22, r28
    32c2:	6f 5f       	subi	r22, 0xFF	; 255
    32c4:	7f 4f       	sbci	r23, 0xFF	; 255
    32c6:	ca 01       	movw	r24, r20
    32c8:	0e 94 98 14 	call	0x2930	; 0x2930 <_ZN6SdFile10make83NameEPKcPh>
    32cc:	88 23       	and	r24, r24
    32ce:	09 f4       	brne	.+2      	; 0x32d2 <_ZN6SdFile4openEPS_PKch+0x46>
    32d0:	ba c0       	rjmp	.+372    	; 0x3446 <_ZN6SdFile4openEPS_PKch+0x1ba>
    32d2:	f7 01       	movw	r30, r14
    32d4:	83 8d       	ldd	r24, Z+27	; 0x1b
    32d6:	94 8d       	ldd	r25, Z+28	; 0x1c
    32d8:	f6 01       	movw	r30, r12
    32da:	94 8f       	std	Z+28, r25	; 0x1c
    32dc:	83 8f       	std	Z+27, r24	; 0x1b
    32de:	f7 01       	movw	r30, r14
    32e0:	16 82       	std	Z+6, r1	; 0x06
    32e2:	17 82       	std	Z+7, r1	; 0x07
    32e4:	10 86       	std	Z+8, r1	; 0x08
    32e6:	11 86       	std	Z+9, r1	; 0x09
    32e8:	12 86       	std	Z+10, r1	; 0x0a
    32ea:	13 86       	std	Z+11, r1	; 0x0b
    32ec:	14 86       	std	Z+12, r1	; 0x0c
    32ee:	15 86       	std	Z+13, r1	; 0x0d
    32f0:	b1 2c       	mov	r11, r1
    32f2:	aa 24       	eor	r10, r10
    32f4:	a3 94       	inc	r10
    32f6:	3f c0       	rjmp	.+126    	; 0x3376 <_ZN6SdFile4openEPS_PKch+0xea>
    32f8:	68 94       	set
    32fa:	14 f8       	bld	r1, 4
    32fc:	36 95       	lsr	r19
    32fe:	27 95       	ror	r18
    3300:	17 95       	ror	r17
    3302:	07 95       	ror	r16
    3304:	16 94       	lsr	r1
    3306:	d1 f7       	brne	.-12     	; 0x32fc <_ZN6SdFile4openEPS_PKch+0x70>
    3308:	0f 70       	andi	r16, 0x0F	; 15
    330a:	c7 01       	movw	r24, r14
    330c:	0e 94 aa 16 	call	0x2d54	; 0x2d54 <_ZN6SdFile12readDirCacheEv>
    3310:	00 97       	sbiw	r24, 0x00	; 0
    3312:	09 f4       	brne	.+2      	; 0x3316 <_ZN6SdFile4openEPS_PKch+0x8a>
    3314:	9a c0       	rjmp	.+308    	; 0x344a <_ZN6SdFile4openEPS_PKch+0x1be>
    3316:	fc 01       	movw	r30, r24
    3318:	20 81       	ld	r18, Z
    331a:	22 23       	and	r18, r18
    331c:	11 f0       	breq	.+4      	; 0x3322 <_ZN6SdFile4openEPS_PKch+0x96>
    331e:	25 3e       	cpi	r18, 0xE5	; 229
    3320:	b1 f4       	brne	.+44     	; 0x334e <_ZN6SdFile4openEPS_PKch+0xc2>
    3322:	b1 10       	cpse	r11, r1
    3324:	0f c0       	rjmp	.+30     	; 0x3344 <_ZN6SdFile4openEPS_PKch+0xb8>
    3326:	f6 01       	movw	r30, r12
    3328:	02 8b       	std	Z+18, r16	; 0x12
    332a:	40 91 07 01 	lds	r20, 0x0107
    332e:	50 91 08 01 	lds	r21, 0x0108
    3332:	60 91 09 01 	lds	r22, 0x0109
    3336:	70 91 0a 01 	lds	r23, 0x010A
    333a:	46 87       	std	Z+14, r20	; 0x0e
    333c:	57 87       	std	Z+15, r21	; 0x0f
    333e:	60 8b       	std	Z+16, r22	; 0x10
    3340:	71 8b       	std	Z+17, r23	; 0x11
    3342:	ba 2c       	mov	r11, r10
    3344:	fc 01       	movw	r30, r24
    3346:	80 81       	ld	r24, Z
    3348:	81 11       	cpse	r24, r1
    334a:	15 c0       	rjmp	.+42     	; 0x3376 <_ZN6SdFile4openEPS_PKch+0xea>
    334c:	23 c0       	rjmp	.+70     	; 0x3394 <_ZN6SdFile4openEPS_PKch+0x108>
    334e:	4b e0       	ldi	r20, 0x0B	; 11
    3350:	50 e0       	ldi	r21, 0x00	; 0
    3352:	bc 01       	movw	r22, r24
    3354:	ce 01       	movw	r24, r28
    3356:	01 96       	adiw	r24, 0x01	; 1
    3358:	0e 94 03 25 	call	0x4a06	; 0x4a06 <memcmp>
    335c:	89 2b       	or	r24, r25
    335e:	59 f4       	brne	.+22     	; 0x3376 <_ZN6SdFile4openEPS_PKch+0xea>
    3360:	89 2d       	mov	r24, r9
    3362:	80 73       	andi	r24, 0x30	; 48
    3364:	80 33       	cpi	r24, 0x30	; 48
    3366:	09 f4       	brne	.+2      	; 0x336a <_ZN6SdFile4openEPS_PKch+0xde>
    3368:	72 c0       	rjmp	.+228    	; 0x344e <_ZN6SdFile4openEPS_PKch+0x1c2>
    336a:	49 2d       	mov	r20, r9
    336c:	60 2f       	mov	r22, r16
    336e:	c6 01       	movw	r24, r12
    3370:	0e 94 d2 18 	call	0x31a4	; 0x31a4 <_ZN6SdFile15openCachedEntryEhh>
    3374:	77 c0       	rjmp	.+238    	; 0x3464 <_ZN6SdFile4openEPS_PKch+0x1d8>
    3376:	f7 01       	movw	r30, r14
    3378:	02 85       	ldd	r16, Z+10	; 0x0a
    337a:	13 85       	ldd	r17, Z+11	; 0x0b
    337c:	24 85       	ldd	r18, Z+12	; 0x0c
    337e:	35 85       	ldd	r19, Z+13	; 0x0d
    3380:	83 89       	ldd	r24, Z+19	; 0x13
    3382:	94 89       	ldd	r25, Z+20	; 0x14
    3384:	a5 89       	ldd	r26, Z+21	; 0x15
    3386:	b6 89       	ldd	r27, Z+22	; 0x16
    3388:	08 17       	cp	r16, r24
    338a:	19 07       	cpc	r17, r25
    338c:	2a 07       	cpc	r18, r26
    338e:	3b 07       	cpc	r19, r27
    3390:	08 f4       	brcc	.+2      	; 0x3394 <_ZN6SdFile4openEPS_PKch+0x108>
    3392:	b2 cf       	rjmp	.-156    	; 0x32f8 <_ZN6SdFile4openEPS_PKch+0x6c>
    3394:	89 2d       	mov	r24, r9
    3396:	82 71       	andi	r24, 0x12	; 18
    3398:	82 31       	cpi	r24, 0x12	; 18
    339a:	09 f0       	breq	.+2      	; 0x339e <_ZN6SdFile4openEPS_PKch+0x112>
    339c:	5a c0       	rjmp	.+180    	; 0x3452 <_ZN6SdFile4openEPS_PKch+0x1c6>
    339e:	bb 20       	and	r11, r11
    33a0:	41 f0       	breq	.+16     	; 0x33b2 <_ZN6SdFile4openEPS_PKch+0x126>
    33a2:	61 e0       	ldi	r22, 0x01	; 1
    33a4:	c6 01       	movw	r24, r12
    33a6:	0e 94 7f 14 	call	0x28fe	; 0x28fe <_ZN6SdFile13cacheDirEntryEh>
    33aa:	8c 01       	movw	r16, r24
    33ac:	00 97       	sbiw	r24, 0x00	; 0
    33ae:	81 f4       	brne	.+32     	; 0x33d0 <_ZN6SdFile4openEPS_PKch+0x144>
    33b0:	52 c0       	rjmp	.+164    	; 0x3456 <_ZN6SdFile4openEPS_PKch+0x1ca>
    33b2:	f7 01       	movw	r30, r14
    33b4:	85 81       	ldd	r24, Z+5	; 0x05
    33b6:	82 30       	cpi	r24, 0x02	; 2
    33b8:	09 f4       	brne	.+2      	; 0x33bc <_ZN6SdFile4openEPS_PKch+0x130>
    33ba:	4f c0       	rjmp	.+158    	; 0x345a <_ZN6SdFile4openEPS_PKch+0x1ce>
    33bc:	c7 01       	movw	r24, r14
    33be:	0e 94 1c 14 	call	0x2838	; 0x2838 <_ZN6SdFile13addDirClusterEv>
    33c2:	88 23       	and	r24, r24
    33c4:	09 f4       	brne	.+2      	; 0x33c8 <_ZN6SdFile4openEPS_PKch+0x13c>
    33c6:	4b c0       	rjmp	.+150    	; 0x345e <_ZN6SdFile4openEPS_PKch+0x1d2>
    33c8:	f6 01       	movw	r30, r12
    33ca:	12 8a       	std	Z+18, r1	; 0x12
    33cc:	01 ef       	ldi	r16, 0xF1	; 241
    33ce:	12 e0       	ldi	r17, 0x02	; 2
    33d0:	80 e2       	ldi	r24, 0x20	; 32
    33d2:	f8 01       	movw	r30, r16
    33d4:	11 92       	st	Z+, r1
    33d6:	8a 95       	dec	r24
    33d8:	e9 f7       	brne	.-6      	; 0x33d4 <_ZN6SdFile4openEPS_PKch+0x148>
    33da:	8b e0       	ldi	r24, 0x0B	; 11
    33dc:	fe 01       	movw	r30, r28
    33de:	31 96       	adiw	r30, 0x01	; 1
    33e0:	d8 01       	movw	r26, r16
    33e2:	01 90       	ld	r0, Z+
    33e4:	0d 92       	st	X+, r0
    33e6:	8a 95       	dec	r24
    33e8:	e1 f7       	brne	.-8      	; 0x33e2 <_ZN6SdFile4openEPS_PKch+0x156>
    33ea:	e0 91 e8 02 	lds	r30, 0x02E8
    33ee:	f0 91 e9 02 	lds	r31, 0x02E9
    33f2:	30 97       	sbiw	r30, 0x00	; 0
    33f4:	39 f0       	breq	.+14     	; 0x3404 <_ZN6SdFile4openEPS_PKch+0x178>
    33f6:	b8 01       	movw	r22, r16
    33f8:	62 5f       	subi	r22, 0xF2	; 242
    33fa:	7f 4f       	sbci	r23, 0xFF	; 255
    33fc:	c8 01       	movw	r24, r16
    33fe:	40 96       	adiw	r24, 0x10	; 16
    3400:	09 95       	icall
    3402:	09 c0       	rjmp	.+18     	; 0x3416 <_ZN6SdFile4openEPS_PKch+0x18a>
    3404:	81 e2       	ldi	r24, 0x21	; 33
    3406:	98 e2       	ldi	r25, 0x28	; 40
    3408:	f8 01       	movw	r30, r16
    340a:	91 8b       	std	Z+17, r25	; 0x11
    340c:	80 8b       	std	Z+16, r24	; 0x10
    340e:	80 e0       	ldi	r24, 0x00	; 0
    3410:	98 e0       	ldi	r25, 0x08	; 8
    3412:	97 87       	std	Z+15, r25	; 0x0f
    3414:	86 87       	std	Z+14, r24	; 0x0e
    3416:	f8 01       	movw	r30, r16
    3418:	80 89       	ldd	r24, Z+16	; 0x10
    341a:	91 89       	ldd	r25, Z+17	; 0x11
    341c:	93 8b       	std	Z+19, r25	; 0x13
    341e:	82 8b       	std	Z+18, r24	; 0x12
    3420:	91 8f       	std	Z+25, r25	; 0x19
    3422:	80 8f       	std	Z+24, r24	; 0x18
    3424:	86 85       	ldd	r24, Z+14	; 0x0e
    3426:	97 85       	ldd	r25, Z+15	; 0x0f
    3428:	97 8b       	std	Z+23, r25	; 0x17
    342a:	86 8b       	std	Z+22, r24	; 0x16
    342c:	0e 94 79 1c 	call	0x38f2	; 0x38f2 <_ZN8SdVolume10cacheFlushEv>
    3430:	88 23       	and	r24, r24
    3432:	b9 f0       	breq	.+46     	; 0x3462 <_ZN6SdFile4openEPS_PKch+0x1d6>
    3434:	49 2d       	mov	r20, r9
    3436:	f6 01       	movw	r30, r12
    3438:	62 89       	ldd	r22, Z+18	; 0x12
    343a:	c6 01       	movw	r24, r12
    343c:	0e 94 d2 18 	call	0x31a4	; 0x31a4 <_ZN6SdFile15openCachedEntryEhh>
    3440:	11 c0       	rjmp	.+34     	; 0x3464 <_ZN6SdFile4openEPS_PKch+0x1d8>
    3442:	80 e0       	ldi	r24, 0x00	; 0
    3444:	0f c0       	rjmp	.+30     	; 0x3464 <_ZN6SdFile4openEPS_PKch+0x1d8>
    3446:	80 e0       	ldi	r24, 0x00	; 0
    3448:	0d c0       	rjmp	.+26     	; 0x3464 <_ZN6SdFile4openEPS_PKch+0x1d8>
    344a:	80 e0       	ldi	r24, 0x00	; 0
    344c:	0b c0       	rjmp	.+22     	; 0x3464 <_ZN6SdFile4openEPS_PKch+0x1d8>
    344e:	80 e0       	ldi	r24, 0x00	; 0
    3450:	09 c0       	rjmp	.+18     	; 0x3464 <_ZN6SdFile4openEPS_PKch+0x1d8>
    3452:	80 e0       	ldi	r24, 0x00	; 0
    3454:	07 c0       	rjmp	.+14     	; 0x3464 <_ZN6SdFile4openEPS_PKch+0x1d8>
    3456:	80 e0       	ldi	r24, 0x00	; 0
    3458:	05 c0       	rjmp	.+10     	; 0x3464 <_ZN6SdFile4openEPS_PKch+0x1d8>
    345a:	80 e0       	ldi	r24, 0x00	; 0
    345c:	03 c0       	rjmp	.+6      	; 0x3464 <_ZN6SdFile4openEPS_PKch+0x1d8>
    345e:	80 e0       	ldi	r24, 0x00	; 0
    3460:	01 c0       	rjmp	.+2      	; 0x3464 <_ZN6SdFile4openEPS_PKch+0x1d8>
    3462:	80 e0       	ldi	r24, 0x00	; 0
    3464:	2b 96       	adiw	r28, 0x0b	; 11
    3466:	0f b6       	in	r0, 0x3f	; 63
    3468:	f8 94       	cli
    346a:	de bf       	out	0x3e, r29	; 62
    346c:	0f be       	out	0x3f, r0	; 63
    346e:	cd bf       	out	0x3d, r28	; 61
    3470:	df 91       	pop	r29
    3472:	cf 91       	pop	r28
    3474:	1f 91       	pop	r17
    3476:	0f 91       	pop	r16
    3478:	ff 90       	pop	r15
    347a:	ef 90       	pop	r14
    347c:	df 90       	pop	r13
    347e:	cf 90       	pop	r12
    3480:	bf 90       	pop	r11
    3482:	af 90       	pop	r10
    3484:	9f 90       	pop	r9
    3486:	08 95       	ret

00003488 <_ZN6SdFile5writeEPKvj>:
    3488:	2f 92       	push	r2
    348a:	3f 92       	push	r3
    348c:	4f 92       	push	r4
    348e:	5f 92       	push	r5
    3490:	6f 92       	push	r6
    3492:	7f 92       	push	r7
    3494:	8f 92       	push	r8
    3496:	9f 92       	push	r9
    3498:	af 92       	push	r10
    349a:	bf 92       	push	r11
    349c:	cf 92       	push	r12
    349e:	df 92       	push	r13
    34a0:	ef 92       	push	r14
    34a2:	ff 92       	push	r15
    34a4:	0f 93       	push	r16
    34a6:	1f 93       	push	r17
    34a8:	cf 93       	push	r28
    34aa:	df 93       	push	r29
    34ac:	cd b7       	in	r28, 0x3d	; 61
    34ae:	de b7       	in	r29, 0x3e	; 62
    34b0:	28 97       	sbiw	r28, 0x08	; 8
    34b2:	0f b6       	in	r0, 0x3f	; 63
    34b4:	f8 94       	cli
    34b6:	de bf       	out	0x3e, r29	; 62
    34b8:	0f be       	out	0x3f, r0	; 63
    34ba:	cd bf       	out	0x3d, r28	; 61
    34bc:	8c 01       	movw	r16, r24
    34be:	4b 01       	movw	r8, r22
    34c0:	5e 83       	std	Y+6, r21	; 0x06
    34c2:	4d 83       	std	Y+5, r20	; 0x05
    34c4:	dc 01       	movw	r26, r24
    34c6:	15 96       	adiw	r26, 0x05	; 5
    34c8:	8c 91       	ld	r24, X
    34ca:	15 97       	sbiw	r26, 0x05	; 5
    34cc:	81 30       	cpi	r24, 0x01	; 1
    34ce:	09 f0       	breq	.+2      	; 0x34d2 <_ZN6SdFile5writeEPKvj+0x4a>
    34d0:	7d c1       	rjmp	.+762    	; 0x37cc <_ZN6SdFile5writeEPKvj+0x344>
    34d2:	14 96       	adiw	r26, 0x04	; 4
    34d4:	8c 91       	ld	r24, X
    34d6:	14 97       	sbiw	r26, 0x04	; 4
    34d8:	81 ff       	sbrs	r24, 1
    34da:	78 c1       	rjmp	.+752    	; 0x37cc <_ZN6SdFile5writeEPKvj+0x344>
    34dc:	82 ff       	sbrs	r24, 2
    34de:	17 c0       	rjmp	.+46     	; 0x350e <_ZN6SdFile5writeEPKvj+0x86>
    34e0:	53 96       	adiw	r26, 0x13	; 19
    34e2:	4d 91       	ld	r20, X+
    34e4:	5d 91       	ld	r21, X+
    34e6:	6d 91       	ld	r22, X+
    34e8:	7c 91       	ld	r23, X
    34ea:	56 97       	sbiw	r26, 0x16	; 22
    34ec:	1a 96       	adiw	r26, 0x0a	; 10
    34ee:	8d 91       	ld	r24, X+
    34f0:	9d 91       	ld	r25, X+
    34f2:	0d 90       	ld	r0, X+
    34f4:	bc 91       	ld	r27, X
    34f6:	a0 2d       	mov	r26, r0
    34f8:	84 17       	cp	r24, r20
    34fa:	95 07       	cpc	r25, r21
    34fc:	a6 07       	cpc	r26, r22
    34fe:	b7 07       	cpc	r27, r23
    3500:	31 f0       	breq	.+12     	; 0x350e <_ZN6SdFile5writeEPKvj+0x86>
    3502:	c8 01       	movw	r24, r16
    3504:	0e 94 f5 16 	call	0x2dea	; 0x2dea <_ZN6SdFile7seekSetEm>
    3508:	88 23       	and	r24, r24
    350a:	09 f4       	brne	.+2      	; 0x350e <_ZN6SdFile5writeEPKvj+0x86>
    350c:	5f c1       	rjmp	.+702    	; 0x37cc <_ZN6SdFile5writeEPKvj+0x344>
    350e:	ed 81       	ldd	r30, Y+5	; 0x05
    3510:	fe 81       	ldd	r31, Y+6	; 0x06
    3512:	30 97       	sbiw	r30, 0x00	; 0
    3514:	09 f4       	brne	.+2      	; 0x3518 <_ZN6SdFile5writeEPKvj+0x90>
    3516:	2e c1       	rjmp	.+604    	; 0x3774 <_ZN6SdFile5writeEPKvj+0x2ec>
    3518:	6f 01       	movw	r12, r30
    351a:	21 2c       	mov	r2, r1
    351c:	68 94       	set
    351e:	33 24       	eor	r3, r3
    3520:	31 f8       	bld	r3, 1
    3522:	f8 01       	movw	r30, r16
    3524:	82 85       	ldd	r24, Z+10	; 0x0a
    3526:	93 85       	ldd	r25, Z+11	; 0x0b
    3528:	a4 85       	ldd	r26, Z+12	; 0x0c
    352a:	b5 85       	ldd	r27, Z+13	; 0x0d
    352c:	03 8c       	ldd	r0, Z+27	; 0x1b
    352e:	f4 8d       	ldd	r31, Z+28	; 0x1c
    3530:	e0 2d       	mov	r30, r0
    3532:	f8 87       	std	Y+8, r31	; 0x08
    3534:	ef 83       	std	Y+7, r30	; 0x07
    3536:	ac 01       	movw	r20, r24
    3538:	bd 01       	movw	r22, r26
    353a:	03 2e       	mov	r0, r19
    353c:	39 e0       	ldi	r19, 0x09	; 9
    353e:	76 95       	lsr	r23
    3540:	67 95       	ror	r22
    3542:	57 95       	ror	r21
    3544:	47 95       	ror	r20
    3546:	3a 95       	dec	r19
    3548:	d1 f7       	brne	.-12     	; 0x353e <_ZN6SdFile5writeEPKvj+0xb6>
    354a:	30 2d       	mov	r19, r0
    354c:	24 81       	ldd	r18, Z+4	; 0x04
    354e:	21 50       	subi	r18, 0x01	; 1
    3550:	24 23       	and	r18, r20
    3552:	5c 01       	movw	r10, r24
    3554:	f1 e0       	ldi	r31, 0x01	; 1
    3556:	bf 22       	and	r11, r31
    3558:	21 11       	cpse	r18, r1
    355a:	57 c0       	rjmp	.+174    	; 0x360a <_ZN6SdFile5writeEPKvj+0x182>
    355c:	a1 14       	cp	r10, r1
    355e:	b1 04       	cpc	r11, r1
    3560:	09 f0       	breq	.+2      	; 0x3564 <_ZN6SdFile5writeEPKvj+0xdc>
    3562:	71 c1       	rjmp	.+738    	; 0x3846 <_ZN6SdFile5writeEPKvj+0x3be>
    3564:	d8 01       	movw	r26, r16
    3566:	16 96       	adiw	r26, 0x06	; 6
    3568:	4d 91       	ld	r20, X+
    356a:	5d 91       	ld	r21, X+
    356c:	6d 91       	ld	r22, X+
    356e:	7c 91       	ld	r23, X
    3570:	19 97       	sbiw	r26, 0x09	; 9
    3572:	41 15       	cp	r20, r1
    3574:	51 05       	cpc	r21, r1
    3576:	61 05       	cpc	r22, r1
    3578:	71 05       	cpc	r23, r1
    357a:	b1 f4       	brne	.+44     	; 0x35a8 <_ZN6SdFile5writeEPKvj+0x120>
    357c:	57 96       	adiw	r26, 0x17	; 23
    357e:	8d 91       	ld	r24, X+
    3580:	9d 91       	ld	r25, X+
    3582:	0d 90       	ld	r0, X+
    3584:	bc 91       	ld	r27, X
    3586:	a0 2d       	mov	r26, r0
    3588:	00 97       	sbiw	r24, 0x00	; 0
    358a:	a1 05       	cpc	r26, r1
    358c:	b1 05       	cpc	r27, r1
    358e:	31 f4       	brne	.+12     	; 0x359c <_ZN6SdFile5writeEPKvj+0x114>
    3590:	c8 01       	movw	r24, r16
    3592:	0e 94 f1 13 	call	0x27e2	; 0x27e2 <_ZN6SdFile10addClusterEv>
    3596:	81 11       	cpse	r24, r1
    3598:	29 c1       	rjmp	.+594    	; 0x37ec <_ZN6SdFile5writeEPKvj+0x364>
    359a:	18 c1       	rjmp	.+560    	; 0x37cc <_ZN6SdFile5writeEPKvj+0x344>
    359c:	f8 01       	movw	r30, r16
    359e:	86 83       	std	Z+6, r24	; 0x06
    35a0:	97 83       	std	Z+7, r25	; 0x07
    35a2:	a0 87       	std	Z+8, r26	; 0x08
    35a4:	b1 87       	std	Z+9, r27	; 0x09
    35a6:	22 c1       	rjmp	.+580    	; 0x37ec <_ZN6SdFile5writeEPKvj+0x364>
    35a8:	9e 01       	movw	r18, r28
    35aa:	2f 5f       	subi	r18, 0xFF	; 255
    35ac:	3f 4f       	sbci	r19, 0xFF	; 255
    35ae:	8f 81       	ldd	r24, Y+7	; 0x07
    35b0:	98 85       	ldd	r25, Y+8	; 0x08
    35b2:	0e 94 1c 1d 	call	0x3a38	; 0x3a38 <_ZNK8SdVolume6fatGetEmPm>
    35b6:	81 11       	cpse	r24, r1
    35b8:	02 c0       	rjmp	.+4      	; 0x35be <_ZN6SdFile5writeEPKvj+0x136>
    35ba:	90 e0       	ldi	r25, 0x00	; 0
    35bc:	70 c1       	rjmp	.+736    	; 0x389e <_ZN6SdFile5writeEPKvj+0x416>
    35be:	49 81       	ldd	r20, Y+1	; 0x01
    35c0:	5a 81       	ldd	r21, Y+2	; 0x02
    35c2:	6b 81       	ldd	r22, Y+3	; 0x03
    35c4:	7c 81       	ldd	r23, Y+4	; 0x04
    35c6:	d8 01       	movw	r26, r16
    35c8:	5b 96       	adiw	r26, 0x1b	; 27
    35ca:	ed 91       	ld	r30, X+
    35cc:	fc 91       	ld	r31, X
    35ce:	5c 97       	sbiw	r26, 0x1c	; 28
    35d0:	87 89       	ldd	r24, Z+23	; 0x17
    35d2:	80 31       	cpi	r24, 0x10	; 16
    35d4:	29 f4       	brne	.+10     	; 0x35e0 <_ZN6SdFile5writeEPKvj+0x158>
    35d6:	88 ef       	ldi	r24, 0xF8	; 248
    35d8:	9f ef       	ldi	r25, 0xFF	; 255
    35da:	a0 e0       	ldi	r26, 0x00	; 0
    35dc:	b0 e0       	ldi	r27, 0x00	; 0
    35de:	04 c0       	rjmp	.+8      	; 0x35e8 <_ZN6SdFile5writeEPKvj+0x160>
    35e0:	88 ef       	ldi	r24, 0xF8	; 248
    35e2:	9f ef       	ldi	r25, 0xFF	; 255
    35e4:	af ef       	ldi	r26, 0xFF	; 255
    35e6:	bf e0       	ldi	r27, 0x0F	; 15
    35e8:	48 17       	cp	r20, r24
    35ea:	59 07       	cpc	r21, r25
    35ec:	6a 07       	cpc	r22, r26
    35ee:	7b 07       	cpc	r23, r27
    35f0:	30 f0       	brcs	.+12     	; 0x35fe <_ZN6SdFile5writeEPKvj+0x176>
    35f2:	c8 01       	movw	r24, r16
    35f4:	0e 94 f1 13 	call	0x27e2	; 0x27e2 <_ZN6SdFile10addClusterEv>
    35f8:	81 11       	cpse	r24, r1
    35fa:	f8 c0       	rjmp	.+496    	; 0x37ec <_ZN6SdFile5writeEPKvj+0x364>
    35fc:	e7 c0       	rjmp	.+462    	; 0x37cc <_ZN6SdFile5writeEPKvj+0x344>
    35fe:	f8 01       	movw	r30, r16
    3600:	46 83       	std	Z+6, r20	; 0x06
    3602:	57 83       	std	Z+7, r21	; 0x07
    3604:	60 87       	std	Z+8, r22	; 0x08
    3606:	71 87       	std	Z+9, r23	; 0x09
    3608:	f1 c0       	rjmp	.+482    	; 0x37ec <_ZN6SdFile5writeEPKvj+0x364>
    360a:	c1 01       	movw	r24, r2
    360c:	8a 19       	sub	r24, r10
    360e:	9b 09       	sbc	r25, r11
    3610:	76 01       	movw	r14, r12
    3612:	8c 15       	cp	r24, r12
    3614:	9d 05       	cpc	r25, r13
    3616:	08 f4       	brcc	.+2      	; 0x361a <_ZN6SdFile5writeEPKvj+0x192>
    3618:	7c 01       	movw	r14, r24
    361a:	d8 01       	movw	r26, r16
    361c:	16 96       	adiw	r26, 0x06	; 6
    361e:	4d 90       	ld	r4, X+
    3620:	5d 90       	ld	r5, X+
    3622:	6d 90       	ld	r6, X+
    3624:	7c 90       	ld	r7, X
    3626:	19 97       	sbiw	r26, 0x09	; 9
    3628:	b2 e0       	ldi	r27, 0x02	; 2
    362a:	4b 1a       	sub	r4, r27
    362c:	51 08       	sbc	r5, r1
    362e:	61 08       	sbc	r6, r1
    3630:	71 08       	sbc	r7, r1
    3632:	ef 81       	ldd	r30, Y+7	; 0x07
    3634:	f8 85       	ldd	r31, Y+8	; 0x08
    3636:	05 84       	ldd	r0, Z+13	; 0x0d
    3638:	04 c0       	rjmp	.+8      	; 0x3642 <_ZN6SdFile5writeEPKvj+0x1ba>
    363a:	44 0c       	add	r4, r4
    363c:	55 1c       	adc	r5, r5
    363e:	66 1c       	adc	r6, r6
    3640:	77 1c       	adc	r7, r7
    3642:	0a 94       	dec	r0
    3644:	d2 f7       	brpl	.-12     	; 0x363a <_ZN6SdFile5writeEPKvj+0x1b2>
    3646:	86 85       	ldd	r24, Z+14	; 0x0e
    3648:	97 85       	ldd	r25, Z+15	; 0x0f
    364a:	a0 89       	ldd	r26, Z+16	; 0x10
    364c:	b1 89       	ldd	r27, Z+17	; 0x11
    364e:	48 0e       	add	r4, r24
    3650:	59 1e       	adc	r5, r25
    3652:	6a 1e       	adc	r6, r26
    3654:	7b 1e       	adc	r7, r27
    3656:	42 0e       	add	r4, r18
    3658:	51 1c       	adc	r5, r1
    365a:	61 1c       	adc	r6, r1
    365c:	71 1c       	adc	r7, r1
    365e:	e1 14       	cp	r14, r1
    3660:	f2 e0       	ldi	r31, 0x02	; 2
    3662:	ff 06       	cpc	r15, r31
    3664:	39 f5       	brne	.+78     	; 0x36b4 <_ZN6SdFile5writeEPKvj+0x22c>
    3666:	80 91 07 01 	lds	r24, 0x0107
    366a:	90 91 08 01 	lds	r25, 0x0108
    366e:	a0 91 09 01 	lds	r26, 0x0109
    3672:	b0 91 0a 01 	lds	r27, 0x010A
    3676:	84 15       	cp	r24, r4
    3678:	95 05       	cpc	r25, r5
    367a:	a6 05       	cpc	r26, r6
    367c:	b7 05       	cpc	r27, r7
    367e:	59 f4       	brne	.+22     	; 0x3696 <_ZN6SdFile5writeEPKvj+0x20e>
    3680:	8f ef       	ldi	r24, 0xFF	; 255
    3682:	9f ef       	ldi	r25, 0xFF	; 255
    3684:	dc 01       	movw	r26, r24
    3686:	80 93 07 01 	sts	0x0107, r24
    368a:	90 93 08 01 	sts	0x0108, r25
    368e:	a0 93 09 01 	sts	0x0109, r26
    3692:	b0 93 0a 01 	sts	0x010A, r27
    3696:	94 01       	movw	r18, r8
    3698:	b3 01       	movw	r22, r6
    369a:	a2 01       	movw	r20, r4
    369c:	80 91 ef 02 	lds	r24, 0x02EF
    36a0:	90 91 f0 02 	lds	r25, 0x02F0
    36a4:	0e 94 97 13 	call	0x272e	; 0x272e <_ZN7Sd2Card10writeBlockEmPKh>
    36a8:	88 23       	and	r24, r24
    36aa:	09 f4       	brne	.+2      	; 0x36ae <_ZN6SdFile5writeEPKvj+0x226>
    36ac:	8f c0       	rjmp	.+286    	; 0x37cc <_ZN6SdFile5writeEPKvj+0x344>
    36ae:	9e ef       	ldi	r25, 0xFE	; 254
    36b0:	99 1a       	sub	r9, r25
    36b2:	4d c0       	rjmp	.+154    	; 0x374e <_ZN6SdFile5writeEPKvj+0x2c6>
    36b4:	a1 14       	cp	r10, r1
    36b6:	b1 04       	cpc	r11, r1
    36b8:	29 f5       	brne	.+74     	; 0x3704 <_ZN6SdFile5writeEPKvj+0x27c>
    36ba:	d8 01       	movw	r26, r16
    36bc:	1a 96       	adiw	r26, 0x0a	; 10
    36be:	4d 91       	ld	r20, X+
    36c0:	5d 91       	ld	r21, X+
    36c2:	6d 91       	ld	r22, X+
    36c4:	7c 91       	ld	r23, X
    36c6:	1d 97       	sbiw	r26, 0x0d	; 13
    36c8:	53 96       	adiw	r26, 0x13	; 19
    36ca:	8d 91       	ld	r24, X+
    36cc:	9d 91       	ld	r25, X+
    36ce:	0d 90       	ld	r0, X+
    36d0:	bc 91       	ld	r27, X
    36d2:	a0 2d       	mov	r26, r0
    36d4:	48 17       	cp	r20, r24
    36d6:	59 07       	cpc	r21, r25
    36d8:	6a 07       	cpc	r22, r26
    36da:	7b 07       	cpc	r23, r27
    36dc:	98 f0       	brcs	.+38     	; 0x3704 <_ZN6SdFile5writeEPKvj+0x27c>
    36de:	0e 94 79 1c 	call	0x38f2	; 0x38f2 <_ZN8SdVolume10cacheFlushEv>
    36e2:	88 23       	and	r24, r24
    36e4:	09 f4       	brne	.+2      	; 0x36e8 <_ZN6SdFile5writeEPKvj+0x260>
    36e6:	72 c0       	rjmp	.+228    	; 0x37cc <_ZN6SdFile5writeEPKvj+0x344>
    36e8:	40 92 07 01 	sts	0x0107, r4
    36ec:	50 92 08 01 	sts	0x0108, r5
    36f0:	60 92 09 01 	sts	0x0109, r6
    36f4:	70 92 0a 01 	sts	0x010A, r7
    36f8:	80 91 ee 02 	lds	r24, 0x02EE
    36fc:	81 60       	ori	r24, 0x01	; 1
    36fe:	80 93 ee 02 	sts	0x02EE, r24
    3702:	08 c0       	rjmp	.+16     	; 0x3714 <_ZN6SdFile5writeEPKvj+0x28c>
    3704:	41 e0       	ldi	r20, 0x01	; 1
    3706:	c3 01       	movw	r24, r6
    3708:	b2 01       	movw	r22, r4
    370a:	0e 94 b8 1c 	call	0x3970	; 0x3970 <_ZN8SdVolume13cacheRawBlockEmh>
    370e:	88 23       	and	r24, r24
    3710:	09 f4       	brne	.+2      	; 0x3714 <_ZN6SdFile5writeEPKvj+0x28c>
    3712:	5c c0       	rjmp	.+184    	; 0x37cc <_ZN6SdFile5writeEPKvj+0x344>
    3714:	b5 01       	movw	r22, r10
    3716:	6f 50       	subi	r22, 0x0F	; 15
    3718:	7d 4f       	sbci	r23, 0xFD	; 253
    371a:	9b 01       	movw	r18, r22
    371c:	2e 0d       	add	r18, r14
    371e:	3f 1d       	adc	r19, r15
    3720:	62 17       	cp	r22, r18
    3722:	73 07       	cpc	r23, r19
    3724:	a1 f0       	breq	.+40     	; 0x374e <_ZN6SdFile5writeEPKvj+0x2c6>
    3726:	d4 01       	movw	r26, r8
    3728:	fb 01       	movw	r30, r22
    372a:	c9 01       	movw	r24, r18
    372c:	4d 91       	ld	r20, X+
    372e:	41 93       	st	Z+, r20
    3730:	e8 17       	cp	r30, r24
    3732:	f9 07       	cpc	r31, r25
    3734:	d9 f7       	brne	.-10     	; 0x372c <_ZN6SdFile5writeEPKvj+0x2a4>
    3736:	5b 01       	movw	r10, r22
    3738:	bf ef       	ldi	r27, 0xFF	; 255
    373a:	ab 1a       	sub	r10, r27
    373c:	bb 0a       	sbc	r11, r27
    373e:	81 e0       	ldi	r24, 0x01	; 1
    3740:	90 e0       	ldi	r25, 0x00	; 0
    3742:	8a 19       	sub	r24, r10
    3744:	9b 09       	sbc	r25, r11
    3746:	28 0f       	add	r18, r24
    3748:	39 1f       	adc	r19, r25
    374a:	82 0e       	add	r8, r18
    374c:	93 1e       	adc	r9, r19
    374e:	ce 18       	sub	r12, r14
    3750:	df 08       	sbc	r13, r15
    3752:	f8 01       	movw	r30, r16
    3754:	82 85       	ldd	r24, Z+10	; 0x0a
    3756:	93 85       	ldd	r25, Z+11	; 0x0b
    3758:	a4 85       	ldd	r26, Z+12	; 0x0c
    375a:	b5 85       	ldd	r27, Z+13	; 0x0d
    375c:	8e 0d       	add	r24, r14
    375e:	9f 1d       	adc	r25, r15
    3760:	a1 1d       	adc	r26, r1
    3762:	b1 1d       	adc	r27, r1
    3764:	82 87       	std	Z+10, r24	; 0x0a
    3766:	93 87       	std	Z+11, r25	; 0x0b
    3768:	a4 87       	std	Z+12, r26	; 0x0c
    376a:	b5 87       	std	Z+13, r27	; 0x0d
    376c:	c1 14       	cp	r12, r1
    376e:	d1 04       	cpc	r13, r1
    3770:	09 f0       	breq	.+2      	; 0x3774 <_ZN6SdFile5writeEPKvj+0x2ec>
    3772:	d7 ce       	rjmp	.-594    	; 0x3522 <_ZN6SdFile5writeEPKvj+0x9a>
    3774:	f8 01       	movw	r30, r16
    3776:	82 85       	ldd	r24, Z+10	; 0x0a
    3778:	93 85       	ldd	r25, Z+11	; 0x0b
    377a:	a4 85       	ldd	r26, Z+12	; 0x0c
    377c:	b5 85       	ldd	r27, Z+13	; 0x0d
    377e:	43 89       	ldd	r20, Z+19	; 0x13
    3780:	54 89       	ldd	r21, Z+20	; 0x14
    3782:	65 89       	ldd	r22, Z+21	; 0x15
    3784:	76 89       	ldd	r23, Z+22	; 0x16
    3786:	48 17       	cp	r20, r24
    3788:	59 07       	cpc	r21, r25
    378a:	6a 07       	cpc	r22, r26
    378c:	7b 07       	cpc	r23, r27
    378e:	40 f4       	brcc	.+16     	; 0x37a0 <_ZN6SdFile5writeEPKvj+0x318>
    3790:	83 8b       	std	Z+19, r24	; 0x13
    3792:	94 8b       	std	Z+20, r25	; 0x14
    3794:	a5 8b       	std	Z+21, r26	; 0x15
    3796:	b6 8b       	std	Z+22, r27	; 0x16
    3798:	84 81       	ldd	r24, Z+4	; 0x04
    379a:	80 68       	ori	r24, 0x80	; 128
    379c:	84 83       	std	Z+4, r24	; 0x04
    379e:	0d c0       	rjmp	.+26     	; 0x37ba <_ZN6SdFile5writeEPKvj+0x332>
    37a0:	80 91 e8 02 	lds	r24, 0x02E8
    37a4:	90 91 e9 02 	lds	r25, 0x02E9
    37a8:	89 2b       	or	r24, r25
    37aa:	39 f0       	breq	.+14     	; 0x37ba <_ZN6SdFile5writeEPKvj+0x332>
    37ac:	2d 81       	ldd	r18, Y+5	; 0x05
    37ae:	3e 81       	ldd	r19, Y+6	; 0x06
    37b0:	23 2b       	or	r18, r19
    37b2:	19 f0       	breq	.+6      	; 0x37ba <_ZN6SdFile5writeEPKvj+0x332>
    37b4:	84 81       	ldd	r24, Z+4	; 0x04
    37b6:	80 68       	ori	r24, 0x80	; 128
    37b8:	84 83       	std	Z+4, r24	; 0x04
    37ba:	f8 01       	movw	r30, r16
    37bc:	84 81       	ldd	r24, Z+4	; 0x04
    37be:	83 ff       	sbrs	r24, 3
    37c0:	0f c0       	rjmp	.+30     	; 0x37e0 <_ZN6SdFile5writeEPKvj+0x358>
    37c2:	c8 01       	movw	r24, r16
    37c4:	0e 94 a3 17 	call	0x2f46	; 0x2f46 <_ZN6SdFile4syncEv>
    37c8:	81 11       	cpse	r24, r1
    37ca:	0d c0       	rjmp	.+26     	; 0x37e6 <_ZN6SdFile5writeEPKvj+0x35e>
    37cc:	81 e0       	ldi	r24, 0x01	; 1
    37ce:	90 e0       	ldi	r25, 0x00	; 0
    37d0:	d8 01       	movw	r26, r16
    37d2:	13 96       	adiw	r26, 0x03	; 3
    37d4:	9c 93       	st	X, r25
    37d6:	8e 93       	st	-X, r24
    37d8:	12 97       	sbiw	r26, 0x02	; 2
    37da:	80 e0       	ldi	r24, 0x00	; 0
    37dc:	90 e0       	ldi	r25, 0x00	; 0
    37de:	5f c0       	rjmp	.+190    	; 0x389e <_ZN6SdFile5writeEPKvj+0x416>
    37e0:	8d 81       	ldd	r24, Y+5	; 0x05
    37e2:	9e 81       	ldd	r25, Y+6	; 0x06
    37e4:	5c c0       	rjmp	.+184    	; 0x389e <_ZN6SdFile5writeEPKvj+0x416>
    37e6:	8d 81       	ldd	r24, Y+5	; 0x05
    37e8:	9e 81       	ldd	r25, Y+6	; 0x06
    37ea:	59 c0       	rjmp	.+178    	; 0x389e <_ZN6SdFile5writeEPKvj+0x416>
    37ec:	76 01       	movw	r14, r12
    37ee:	b1 e0       	ldi	r27, 0x01	; 1
    37f0:	cb 16       	cp	r12, r27
    37f2:	b2 e0       	ldi	r27, 0x02	; 2
    37f4:	db 06       	cpc	r13, r27
    37f6:	08 f0       	brcs	.+2      	; 0x37fa <_ZN6SdFile5writeEPKvj+0x372>
    37f8:	71 01       	movw	r14, r2
    37fa:	d8 01       	movw	r26, r16
    37fc:	5b 96       	adiw	r26, 0x1b	; 27
    37fe:	ed 91       	ld	r30, X+
    3800:	fc 91       	ld	r31, X
    3802:	5c 97       	sbiw	r26, 0x1c	; 28
    3804:	16 96       	adiw	r26, 0x06	; 6
    3806:	4d 90       	ld	r4, X+
    3808:	5d 90       	ld	r5, X+
    380a:	6d 90       	ld	r6, X+
    380c:	7c 90       	ld	r7, X
    380e:	19 97       	sbiw	r26, 0x09	; 9
    3810:	b2 e0       	ldi	r27, 0x02	; 2
    3812:	4b 1a       	sub	r4, r27
    3814:	51 08       	sbc	r5, r1
    3816:	61 08       	sbc	r6, r1
    3818:	71 08       	sbc	r7, r1
    381a:	05 84       	ldd	r0, Z+13	; 0x0d
    381c:	04 c0       	rjmp	.+8      	; 0x3826 <_ZN6SdFile5writeEPKvj+0x39e>
    381e:	44 0c       	add	r4, r4
    3820:	55 1c       	adc	r5, r5
    3822:	66 1c       	adc	r6, r6
    3824:	77 1c       	adc	r7, r7
    3826:	0a 94       	dec	r0
    3828:	d2 f7       	brpl	.-12     	; 0x381e <_ZN6SdFile5writeEPKvj+0x396>
    382a:	86 85       	ldd	r24, Z+14	; 0x0e
    382c:	97 85       	ldd	r25, Z+15	; 0x0f
    382e:	a0 89       	ldd	r26, Z+16	; 0x10
    3830:	b1 89       	ldd	r27, Z+17	; 0x11
    3832:	48 0e       	add	r4, r24
    3834:	59 1e       	adc	r5, r25
    3836:	6a 1e       	adc	r6, r26
    3838:	7b 1e       	adc	r7, r27
    383a:	e1 14       	cp	r14, r1
    383c:	e2 e0       	ldi	r30, 0x02	; 2
    383e:	fe 06       	cpc	r15, r30
    3840:	09 f0       	breq	.+2      	; 0x3844 <_ZN6SdFile5writeEPKvj+0x3bc>
    3842:	3b cf       	rjmp	.-394    	; 0x36ba <_ZN6SdFile5writeEPKvj+0x232>
    3844:	10 cf       	rjmp	.-480    	; 0x3666 <_ZN6SdFile5writeEPKvj+0x1de>
    3846:	c1 01       	movw	r24, r2
    3848:	8a 19       	sub	r24, r10
    384a:	9b 09       	sbc	r25, r11
    384c:	76 01       	movw	r14, r12
    384e:	8c 15       	cp	r24, r12
    3850:	9d 05       	cpc	r25, r13
    3852:	08 f4       	brcc	.+2      	; 0x3856 <_ZN6SdFile5writeEPKvj+0x3ce>
    3854:	7c 01       	movw	r14, r24
    3856:	d8 01       	movw	r26, r16
    3858:	16 96       	adiw	r26, 0x06	; 6
    385a:	4d 90       	ld	r4, X+
    385c:	5d 90       	ld	r5, X+
    385e:	6d 90       	ld	r6, X+
    3860:	7c 90       	ld	r7, X
    3862:	19 97       	sbiw	r26, 0x09	; 9
    3864:	b2 e0       	ldi	r27, 0x02	; 2
    3866:	4b 1a       	sub	r4, r27
    3868:	51 08       	sbc	r5, r1
    386a:	61 08       	sbc	r6, r1
    386c:	71 08       	sbc	r7, r1
    386e:	ef 81       	ldd	r30, Y+7	; 0x07
    3870:	f8 85       	ldd	r31, Y+8	; 0x08
    3872:	05 84       	ldd	r0, Z+13	; 0x0d
    3874:	04 c0       	rjmp	.+8      	; 0x387e <_ZN6SdFile5writeEPKvj+0x3f6>
    3876:	44 0c       	add	r4, r4
    3878:	55 1c       	adc	r5, r5
    387a:	66 1c       	adc	r6, r6
    387c:	77 1c       	adc	r7, r7
    387e:	0a 94       	dec	r0
    3880:	d2 f7       	brpl	.-12     	; 0x3876 <_ZN6SdFile5writeEPKvj+0x3ee>
    3882:	86 85       	ldd	r24, Z+14	; 0x0e
    3884:	97 85       	ldd	r25, Z+15	; 0x0f
    3886:	a0 89       	ldd	r26, Z+16	; 0x10
    3888:	b1 89       	ldd	r27, Z+17	; 0x11
    388a:	48 0e       	add	r4, r24
    388c:	59 1e       	adc	r5, r25
    388e:	6a 1e       	adc	r6, r26
    3890:	7b 1e       	adc	r7, r27
    3892:	e1 14       	cp	r14, r1
    3894:	f2 e0       	ldi	r31, 0x02	; 2
    3896:	ff 06       	cpc	r15, r31
    3898:	09 f0       	breq	.+2      	; 0x389c <_ZN6SdFile5writeEPKvj+0x414>
    389a:	34 cf       	rjmp	.-408    	; 0x3704 <_ZN6SdFile5writeEPKvj+0x27c>
    389c:	e4 ce       	rjmp	.-568    	; 0x3666 <_ZN6SdFile5writeEPKvj+0x1de>
    389e:	28 96       	adiw	r28, 0x08	; 8
    38a0:	0f b6       	in	r0, 0x3f	; 63
    38a2:	f8 94       	cli
    38a4:	de bf       	out	0x3e, r29	; 62
    38a6:	0f be       	out	0x3f, r0	; 63
    38a8:	cd bf       	out	0x3d, r28	; 61
    38aa:	df 91       	pop	r29
    38ac:	cf 91       	pop	r28
    38ae:	1f 91       	pop	r17
    38b0:	0f 91       	pop	r16
    38b2:	ff 90       	pop	r15
    38b4:	ef 90       	pop	r14
    38b6:	df 90       	pop	r13
    38b8:	cf 90       	pop	r12
    38ba:	bf 90       	pop	r11
    38bc:	af 90       	pop	r10
    38be:	9f 90       	pop	r9
    38c0:	8f 90       	pop	r8
    38c2:	7f 90       	pop	r7
    38c4:	6f 90       	pop	r6
    38c6:	5f 90       	pop	r5
    38c8:	4f 90       	pop	r4
    38ca:	3f 90       	pop	r3
    38cc:	2f 90       	pop	r2
    38ce:	08 95       	ret

000038d0 <_ZN6SdFile5writeEh>:
    38d0:	cf 93       	push	r28
    38d2:	df 93       	push	r29
    38d4:	1f 92       	push	r1
    38d6:	cd b7       	in	r28, 0x3d	; 61
    38d8:	de b7       	in	r29, 0x3e	; 62
    38da:	69 83       	std	Y+1, r22	; 0x01
    38dc:	41 e0       	ldi	r20, 0x01	; 1
    38de:	50 e0       	ldi	r21, 0x00	; 0
    38e0:	be 01       	movw	r22, r28
    38e2:	6f 5f       	subi	r22, 0xFF	; 255
    38e4:	7f 4f       	sbci	r23, 0xFF	; 255
    38e6:	0e 94 44 1a 	call	0x3488	; 0x3488 <_ZN6SdFile5writeEPKvj>
    38ea:	0f 90       	pop	r0
    38ec:	df 91       	pop	r29
    38ee:	cf 91       	pop	r28
    38f0:	08 95       	ret

000038f2 <_ZN8SdVolume10cacheFlushEv>:
    38f2:	80 91 ee 02 	lds	r24, 0x02EE
    38f6:	88 23       	and	r24, r24
    38f8:	a9 f1       	breq	.+106    	; 0x3964 <_ZN8SdVolume10cacheFlushEv+0x72>
    38fa:	40 91 07 01 	lds	r20, 0x0107
    38fe:	50 91 08 01 	lds	r21, 0x0108
    3902:	60 91 09 01 	lds	r22, 0x0109
    3906:	70 91 0a 01 	lds	r23, 0x010A
    390a:	21 ef       	ldi	r18, 0xF1	; 241
    390c:	32 e0       	ldi	r19, 0x02	; 2
    390e:	80 91 ef 02 	lds	r24, 0x02EF
    3912:	90 91 f0 02 	lds	r25, 0x02F0
    3916:	0e 94 97 13 	call	0x272e	; 0x272e <_ZN7Sd2Card10writeBlockEmPKh>
    391a:	88 23       	and	r24, r24
    391c:	29 f1       	breq	.+74     	; 0x3968 <_ZN8SdVolume10cacheFlushEv+0x76>
    391e:	40 91 ea 02 	lds	r20, 0x02EA
    3922:	50 91 eb 02 	lds	r21, 0x02EB
    3926:	60 91 ec 02 	lds	r22, 0x02EC
    392a:	70 91 ed 02 	lds	r23, 0x02ED
    392e:	41 15       	cp	r20, r1
    3930:	51 05       	cpc	r21, r1
    3932:	61 05       	cpc	r22, r1
    3934:	71 05       	cpc	r23, r1
    3936:	91 f0       	breq	.+36     	; 0x395c <_ZN8SdVolume10cacheFlushEv+0x6a>
    3938:	21 ef       	ldi	r18, 0xF1	; 241
    393a:	32 e0       	ldi	r19, 0x02	; 2
    393c:	80 91 ef 02 	lds	r24, 0x02EF
    3940:	90 91 f0 02 	lds	r25, 0x02F0
    3944:	0e 94 97 13 	call	0x272e	; 0x272e <_ZN7Sd2Card10writeBlockEmPKh>
    3948:	88 23       	and	r24, r24
    394a:	81 f0       	breq	.+32     	; 0x396c <_ZN8SdVolume10cacheFlushEv+0x7a>
    394c:	10 92 ea 02 	sts	0x02EA, r1
    3950:	10 92 eb 02 	sts	0x02EB, r1
    3954:	10 92 ec 02 	sts	0x02EC, r1
    3958:	10 92 ed 02 	sts	0x02ED, r1
    395c:	10 92 ee 02 	sts	0x02EE, r1
    3960:	81 e0       	ldi	r24, 0x01	; 1
    3962:	08 95       	ret
    3964:	81 e0       	ldi	r24, 0x01	; 1
    3966:	08 95       	ret
    3968:	80 e0       	ldi	r24, 0x00	; 0
    396a:	08 95       	ret
    396c:	80 e0       	ldi	r24, 0x00	; 0
    396e:	08 95       	ret

00003970 <_ZN8SdVolume13cacheRawBlockEmh>:
    3970:	cf 92       	push	r12
    3972:	df 92       	push	r13
    3974:	ef 92       	push	r14
    3976:	ff 92       	push	r15
    3978:	cf 93       	push	r28
    397a:	6b 01       	movw	r12, r22
    397c:	7c 01       	movw	r14, r24
    397e:	c4 2f       	mov	r28, r20
    3980:	80 91 07 01 	lds	r24, 0x0107
    3984:	90 91 08 01 	lds	r25, 0x0108
    3988:	a0 91 09 01 	lds	r26, 0x0109
    398c:	b0 91 0a 01 	lds	r27, 0x010A
    3990:	8c 15       	cp	r24, r12
    3992:	9d 05       	cpc	r25, r13
    3994:	ae 05       	cpc	r26, r14
    3996:	bf 05       	cpc	r27, r15
    3998:	c1 f0       	breq	.+48     	; 0x39ca <_ZN8SdVolume13cacheRawBlockEmh+0x5a>
    399a:	0e 94 79 1c 	call	0x38f2	; 0x38f2 <_ZN8SdVolume10cacheFlushEv>
    399e:	88 23       	and	r24, r24
    39a0:	d9 f0       	breq	.+54     	; 0x39d8 <_ZN8SdVolume13cacheRawBlockEmh+0x68>
    39a2:	21 ef       	ldi	r18, 0xF1	; 241
    39a4:	32 e0       	ldi	r19, 0x02	; 2
    39a6:	b7 01       	movw	r22, r14
    39a8:	a6 01       	movw	r20, r12
    39aa:	80 91 ef 02 	lds	r24, 0x02EF
    39ae:	90 91 f0 02 	lds	r25, 0x02F0
    39b2:	0e 94 51 13 	call	0x26a2	; 0x26a2 <_ZN7Sd2Card9readBlockEmPh>
    39b6:	88 23       	and	r24, r24
    39b8:	89 f0       	breq	.+34     	; 0x39dc <_ZN8SdVolume13cacheRawBlockEmh+0x6c>
    39ba:	c0 92 07 01 	sts	0x0107, r12
    39be:	d0 92 08 01 	sts	0x0108, r13
    39c2:	e0 92 09 01 	sts	0x0109, r14
    39c6:	f0 92 0a 01 	sts	0x010A, r15
    39ca:	80 91 ee 02 	lds	r24, 0x02EE
    39ce:	c8 2b       	or	r28, r24
    39d0:	c0 93 ee 02 	sts	0x02EE, r28
    39d4:	81 e0       	ldi	r24, 0x01	; 1
    39d6:	03 c0       	rjmp	.+6      	; 0x39de <_ZN8SdVolume13cacheRawBlockEmh+0x6e>
    39d8:	80 e0       	ldi	r24, 0x00	; 0
    39da:	01 c0       	rjmp	.+2      	; 0x39de <_ZN8SdVolume13cacheRawBlockEmh+0x6e>
    39dc:	80 e0       	ldi	r24, 0x00	; 0
    39de:	cf 91       	pop	r28
    39e0:	ff 90       	pop	r15
    39e2:	ef 90       	pop	r14
    39e4:	df 90       	pop	r13
    39e6:	cf 90       	pop	r12
    39e8:	08 95       	ret

000039ea <_ZN8SdVolume14cacheZeroBlockEm>:
    39ea:	cf 92       	push	r12
    39ec:	df 92       	push	r13
    39ee:	ef 92       	push	r14
    39f0:	ff 92       	push	r15
    39f2:	6b 01       	movw	r12, r22
    39f4:	7c 01       	movw	r14, r24
    39f6:	0e 94 79 1c 	call	0x38f2	; 0x38f2 <_ZN8SdVolume10cacheFlushEv>
    39fa:	88 23       	and	r24, r24
    39fc:	b9 f0       	breq	.+46     	; 0x3a2c <_ZN8SdVolume14cacheZeroBlockEm+0x42>
    39fe:	e1 ef       	ldi	r30, 0xF1	; 241
    3a00:	f2 e0       	ldi	r31, 0x02	; 2
    3a02:	81 ef       	ldi	r24, 0xF1	; 241
    3a04:	94 e0       	ldi	r25, 0x04	; 4
    3a06:	11 92       	st	Z+, r1
    3a08:	e8 17       	cp	r30, r24
    3a0a:	f9 07       	cpc	r31, r25
    3a0c:	e1 f7       	brne	.-8      	; 0x3a06 <_ZN8SdVolume14cacheZeroBlockEm+0x1c>
    3a0e:	c0 92 07 01 	sts	0x0107, r12
    3a12:	d0 92 08 01 	sts	0x0108, r13
    3a16:	e0 92 09 01 	sts	0x0109, r14
    3a1a:	f0 92 0a 01 	sts	0x010A, r15
    3a1e:	80 91 ee 02 	lds	r24, 0x02EE
    3a22:	81 60       	ori	r24, 0x01	; 1
    3a24:	80 93 ee 02 	sts	0x02EE, r24
    3a28:	81 e0       	ldi	r24, 0x01	; 1
    3a2a:	01 c0       	rjmp	.+2      	; 0x3a2e <_ZN8SdVolume14cacheZeroBlockEm+0x44>
    3a2c:	80 e0       	ldi	r24, 0x00	; 0
    3a2e:	ff 90       	pop	r15
    3a30:	ef 90       	pop	r14
    3a32:	df 90       	pop	r13
    3a34:	cf 90       	pop	r12
    3a36:	08 95       	ret

00003a38 <_ZNK8SdVolume6fatGetEmPm>:
    3a38:	8f 92       	push	r8
    3a3a:	9f 92       	push	r9
    3a3c:	af 92       	push	r10
    3a3e:	bf 92       	push	r11
    3a40:	cf 92       	push	r12
    3a42:	df 92       	push	r13
    3a44:	ef 92       	push	r14
    3a46:	ff 92       	push	r15
    3a48:	0f 93       	push	r16
    3a4a:	1f 93       	push	r17
    3a4c:	cf 93       	push	r28
    3a4e:	df 93       	push	r29
    3a50:	ec 01       	movw	r28, r24
    3a52:	6a 01       	movw	r12, r20
    3a54:	7b 01       	movw	r14, r22
    3a56:	89 01       	movw	r16, r18
    3a58:	89 85       	ldd	r24, Y+9	; 0x09
    3a5a:	9a 85       	ldd	r25, Y+10	; 0x0a
    3a5c:	ab 85       	ldd	r26, Y+11	; 0x0b
    3a5e:	bc 85       	ldd	r27, Y+12	; 0x0c
    3a60:	01 96       	adiw	r24, 0x01	; 1
    3a62:	a1 1d       	adc	r26, r1
    3a64:	b1 1d       	adc	r27, r1
    3a66:	84 17       	cp	r24, r20
    3a68:	95 07       	cpc	r25, r21
    3a6a:	a6 07       	cpc	r26, r22
    3a6c:	b7 07       	cpc	r27, r23
    3a6e:	08 f4       	brcc	.+2      	; 0x3a72 <_ZNK8SdVolume6fatGetEmPm+0x3a>
    3a70:	5e c0       	rjmp	.+188    	; 0x3b2e <_ZNK8SdVolume6fatGetEmPm+0xf6>
    3a72:	8b 89       	ldd	r24, Y+19	; 0x13
    3a74:	9c 89       	ldd	r25, Y+20	; 0x14
    3a76:	ad 89       	ldd	r26, Y+21	; 0x15
    3a78:	be 89       	ldd	r27, Y+22	; 0x16
    3a7a:	2f 89       	ldd	r18, Y+23	; 0x17
    3a7c:	20 31       	cpi	r18, 0x10	; 16
    3a7e:	29 f4       	brne	.+10     	; 0x3a8a <_ZNK8SdVolume6fatGetEmPm+0x52>
    3a80:	45 2f       	mov	r20, r21
    3a82:	56 2f       	mov	r21, r22
    3a84:	67 2f       	mov	r22, r23
    3a86:	77 27       	eor	r23, r23
    3a88:	08 c0       	rjmp	.+16     	; 0x3a9a <_ZNK8SdVolume6fatGetEmPm+0x62>
    3a8a:	68 94       	set
    3a8c:	16 f8       	bld	r1, 6
    3a8e:	76 95       	lsr	r23
    3a90:	67 95       	ror	r22
    3a92:	57 95       	ror	r21
    3a94:	47 95       	ror	r20
    3a96:	16 94       	lsr	r1
    3a98:	d1 f7       	brne	.-12     	; 0x3a8e <_ZNK8SdVolume6fatGetEmPm+0x56>
    3a9a:	4a 01       	movw	r8, r20
    3a9c:	5b 01       	movw	r10, r22
    3a9e:	88 0e       	add	r8, r24
    3aa0:	99 1e       	adc	r9, r25
    3aa2:	aa 1e       	adc	r10, r26
    3aa4:	bb 1e       	adc	r11, r27
    3aa6:	c5 01       	movw	r24, r10
    3aa8:	b4 01       	movw	r22, r8
    3aaa:	80 90 07 01 	lds	r8, 0x0107
    3aae:	90 90 08 01 	lds	r9, 0x0108
    3ab2:	a0 90 09 01 	lds	r10, 0x0109
    3ab6:	b0 90 0a 01 	lds	r11, 0x010A
    3aba:	68 15       	cp	r22, r8
    3abc:	79 05       	cpc	r23, r9
    3abe:	8a 05       	cpc	r24, r10
    3ac0:	9b 05       	cpc	r25, r11
    3ac2:	29 f0       	breq	.+10     	; 0x3ace <_ZNK8SdVolume6fatGetEmPm+0x96>
    3ac4:	40 e0       	ldi	r20, 0x00	; 0
    3ac6:	0e 94 b8 1c 	call	0x3970	; 0x3970 <_ZN8SdVolume13cacheRawBlockEmh>
    3aca:	88 23       	and	r24, r24
    3acc:	91 f1       	breq	.+100    	; 0x3b32 <_ZNK8SdVolume6fatGetEmPm+0xfa>
    3ace:	8f 89       	ldd	r24, Y+23	; 0x17
    3ad0:	80 31       	cpi	r24, 0x10	; 16
    3ad2:	a1 f4       	brne	.+40     	; 0x3afc <_ZNK8SdVolume6fatGetEmPm+0xc4>
    3ad4:	dd 24       	eor	r13, r13
    3ad6:	ee 24       	eor	r14, r14
    3ad8:	ff 24       	eor	r15, r15
    3ada:	c6 01       	movw	r24, r12
    3adc:	88 0f       	add	r24, r24
    3ade:	99 1f       	adc	r25, r25
    3ae0:	fc 01       	movw	r30, r24
    3ae2:	ef 50       	subi	r30, 0x0F	; 15
    3ae4:	fd 4f       	sbci	r31, 0xFD	; 253
    3ae6:	80 81       	ld	r24, Z
    3ae8:	91 81       	ldd	r25, Z+1	; 0x01
    3aea:	a0 e0       	ldi	r26, 0x00	; 0
    3aec:	b0 e0       	ldi	r27, 0x00	; 0
    3aee:	f8 01       	movw	r30, r16
    3af0:	80 83       	st	Z, r24
    3af2:	91 83       	std	Z+1, r25	; 0x01
    3af4:	a2 83       	std	Z+2, r26	; 0x02
    3af6:	b3 83       	std	Z+3, r27	; 0x03
    3af8:	81 e0       	ldi	r24, 0x01	; 1
    3afa:	1c c0       	rjmp	.+56     	; 0x3b34 <_ZNK8SdVolume6fatGetEmPm+0xfc>
    3afc:	e8 94       	clt
    3afe:	c7 f8       	bld	r12, 7
    3b00:	dd 24       	eor	r13, r13
    3b02:	ee 24       	eor	r14, r14
    3b04:	ff 24       	eor	r15, r15
    3b06:	c6 01       	movw	r24, r12
    3b08:	88 0f       	add	r24, r24
    3b0a:	99 1f       	adc	r25, r25
    3b0c:	88 0f       	add	r24, r24
    3b0e:	99 1f       	adc	r25, r25
    3b10:	fc 01       	movw	r30, r24
    3b12:	ef 50       	subi	r30, 0x0F	; 15
    3b14:	fd 4f       	sbci	r31, 0xFD	; 253
    3b16:	80 81       	ld	r24, Z
    3b18:	91 81       	ldd	r25, Z+1	; 0x01
    3b1a:	a2 81       	ldd	r26, Z+2	; 0x02
    3b1c:	b3 81       	ldd	r27, Z+3	; 0x03
    3b1e:	bf 70       	andi	r27, 0x0F	; 15
    3b20:	f8 01       	movw	r30, r16
    3b22:	80 83       	st	Z, r24
    3b24:	91 83       	std	Z+1, r25	; 0x01
    3b26:	a2 83       	std	Z+2, r26	; 0x02
    3b28:	b3 83       	std	Z+3, r27	; 0x03
    3b2a:	81 e0       	ldi	r24, 0x01	; 1
    3b2c:	03 c0       	rjmp	.+6      	; 0x3b34 <_ZNK8SdVolume6fatGetEmPm+0xfc>
    3b2e:	80 e0       	ldi	r24, 0x00	; 0
    3b30:	01 c0       	rjmp	.+2      	; 0x3b34 <_ZNK8SdVolume6fatGetEmPm+0xfc>
    3b32:	80 e0       	ldi	r24, 0x00	; 0
    3b34:	df 91       	pop	r29
    3b36:	cf 91       	pop	r28
    3b38:	1f 91       	pop	r17
    3b3a:	0f 91       	pop	r16
    3b3c:	ff 90       	pop	r15
    3b3e:	ef 90       	pop	r14
    3b40:	df 90       	pop	r13
    3b42:	cf 90       	pop	r12
    3b44:	bf 90       	pop	r11
    3b46:	af 90       	pop	r10
    3b48:	9f 90       	pop	r9
    3b4a:	8f 90       	pop	r8
    3b4c:	08 95       	ret

00003b4e <_ZNK8SdVolume9chainSizeEmPm>:
    3b4e:	2f 92       	push	r2
    3b50:	3f 92       	push	r3
    3b52:	4f 92       	push	r4
    3b54:	5f 92       	push	r5
    3b56:	6f 92       	push	r6
    3b58:	7f 92       	push	r7
    3b5a:	8f 92       	push	r8
    3b5c:	9f 92       	push	r9
    3b5e:	af 92       	push	r10
    3b60:	bf 92       	push	r11
    3b62:	cf 92       	push	r12
    3b64:	df 92       	push	r13
    3b66:	ef 92       	push	r14
    3b68:	ff 92       	push	r15
    3b6a:	0f 93       	push	r16
    3b6c:	1f 93       	push	r17
    3b6e:	cf 93       	push	r28
    3b70:	df 93       	push	r29
    3b72:	00 d0       	rcall	.+0      	; 0x3b74 <_ZNK8SdVolume9chainSizeEmPm+0x26>
    3b74:	00 d0       	rcall	.+0      	; 0x3b76 <_ZNK8SdVolume9chainSizeEmPm+0x28>
    3b76:	00 d0       	rcall	.+0      	; 0x3b78 <_ZNK8SdVolume9chainSizeEmPm+0x2a>
    3b78:	cd b7       	in	r28, 0x3d	; 61
    3b7a:	de b7       	in	r29, 0x3e	; 62
    3b7c:	8c 01       	movw	r16, r24
    3b7e:	49 83       	std	Y+1, r20	; 0x01
    3b80:	5a 83       	std	Y+2, r21	; 0x02
    3b82:	6b 83       	std	Y+3, r22	; 0x03
    3b84:	7c 83       	std	Y+4, r23	; 0x04
    3b86:	3e 83       	std	Y+6, r19	; 0x06
    3b88:	2d 83       	std	Y+5, r18	; 0x05
    3b8a:	c1 2c       	mov	r12, r1
    3b8c:	d1 2c       	mov	r13, r1
    3b8e:	76 01       	movw	r14, r12
    3b90:	41 2c       	mov	r4, r1
    3b92:	51 2c       	mov	r5, r1
    3b94:	32 01       	movw	r6, r4
    3b96:	68 94       	set
    3b98:	51 f8       	bld	r5, 1
    3b9a:	0f 2e       	mov	r0, r31
    3b9c:	f8 ef       	ldi	r31, 0xF8	; 248
    3b9e:	2f 2e       	mov	r2, r31
    3ba0:	f0 2d       	mov	r31, r0
    3ba2:	33 24       	eor	r3, r3
    3ba4:	3a 94       	dec	r3
    3ba6:	88 24       	eor	r8, r8
    3ba8:	8a 94       	dec	r8
    3baa:	0f 2e       	mov	r0, r31
    3bac:	ff e0       	ldi	r31, 0x0F	; 15
    3bae:	9f 2e       	mov	r9, r31
    3bb0:	f0 2d       	mov	r31, r0
    3bb2:	a1 2c       	mov	r10, r1
    3bb4:	b1 2c       	mov	r11, r1
    3bb6:	49 81       	ldd	r20, Y+1	; 0x01
    3bb8:	5a 81       	ldd	r21, Y+2	; 0x02
    3bba:	6b 81       	ldd	r22, Y+3	; 0x03
    3bbc:	7c 81       	ldd	r23, Y+4	; 0x04
    3bbe:	9e 01       	movw	r18, r28
    3bc0:	2f 5f       	subi	r18, 0xFF	; 255
    3bc2:	3f 4f       	sbci	r19, 0xFF	; 255
    3bc4:	c8 01       	movw	r24, r16
    3bc6:	0e 94 1c 1d 	call	0x3a38	; 0x3a38 <_ZNK8SdVolume6fatGetEmPm>
    3bca:	88 23       	and	r24, r24
    3bcc:	61 f1       	breq	.+88     	; 0x3c26 <_ZNK8SdVolume9chainSizeEmPm+0xd8>
    3bce:	d3 01       	movw	r26, r6
    3bd0:	c2 01       	movw	r24, r4
    3bd2:	f8 01       	movw	r30, r16
    3bd4:	05 84       	ldd	r0, Z+13	; 0x0d
    3bd6:	04 c0       	rjmp	.+8      	; 0x3be0 <_ZNK8SdVolume9chainSizeEmPm+0x92>
    3bd8:	88 0f       	add	r24, r24
    3bda:	99 1f       	adc	r25, r25
    3bdc:	aa 1f       	adc	r26, r26
    3bde:	bb 1f       	adc	r27, r27
    3be0:	0a 94       	dec	r0
    3be2:	d2 f7       	brpl	.-12     	; 0x3bd8 <_ZNK8SdVolume9chainSizeEmPm+0x8a>
    3be4:	c8 0e       	add	r12, r24
    3be6:	d9 1e       	adc	r13, r25
    3be8:	ea 1e       	adc	r14, r26
    3bea:	fb 1e       	adc	r15, r27
    3bec:	49 81       	ldd	r20, Y+1	; 0x01
    3bee:	5a 81       	ldd	r21, Y+2	; 0x02
    3bf0:	6b 81       	ldd	r22, Y+3	; 0x03
    3bf2:	7c 81       	ldd	r23, Y+4	; 0x04
    3bf4:	87 89       	ldd	r24, Z+23	; 0x17
    3bf6:	80 31       	cpi	r24, 0x10	; 16
    3bf8:	29 f4       	brne	.+10     	; 0x3c04 <_ZNK8SdVolume9chainSizeEmPm+0xb6>
    3bfa:	88 ef       	ldi	r24, 0xF8	; 248
    3bfc:	9f ef       	ldi	r25, 0xFF	; 255
    3bfe:	aa 2d       	mov	r26, r10
    3c00:	bb 2d       	mov	r27, r11
    3c02:	04 c0       	rjmp	.+8      	; 0x3c0c <_ZNK8SdVolume9chainSizeEmPm+0xbe>
    3c04:	82 2d       	mov	r24, r2
    3c06:	93 2d       	mov	r25, r3
    3c08:	a8 2d       	mov	r26, r8
    3c0a:	b9 2d       	mov	r27, r9
    3c0c:	48 17       	cp	r20, r24
    3c0e:	59 07       	cpc	r21, r25
    3c10:	6a 07       	cpc	r22, r26
    3c12:	7b 07       	cpc	r23, r27
    3c14:	80 f2       	brcs	.-96     	; 0x3bb6 <_ZNK8SdVolume9chainSizeEmPm+0x68>
    3c16:	ed 81       	ldd	r30, Y+5	; 0x05
    3c18:	fe 81       	ldd	r31, Y+6	; 0x06
    3c1a:	c0 82       	st	Z, r12
    3c1c:	d1 82       	std	Z+1, r13	; 0x01
    3c1e:	e2 82       	std	Z+2, r14	; 0x02
    3c20:	f3 82       	std	Z+3, r15	; 0x03
    3c22:	81 e0       	ldi	r24, 0x01	; 1
    3c24:	01 c0       	rjmp	.+2      	; 0x3c28 <_ZNK8SdVolume9chainSizeEmPm+0xda>
    3c26:	80 e0       	ldi	r24, 0x00	; 0
    3c28:	26 96       	adiw	r28, 0x06	; 6
    3c2a:	0f b6       	in	r0, 0x3f	; 63
    3c2c:	f8 94       	cli
    3c2e:	de bf       	out	0x3e, r29	; 62
    3c30:	0f be       	out	0x3f, r0	; 63
    3c32:	cd bf       	out	0x3d, r28	; 61
    3c34:	df 91       	pop	r29
    3c36:	cf 91       	pop	r28
    3c38:	1f 91       	pop	r17
    3c3a:	0f 91       	pop	r16
    3c3c:	ff 90       	pop	r15
    3c3e:	ef 90       	pop	r14
    3c40:	df 90       	pop	r13
    3c42:	cf 90       	pop	r12
    3c44:	bf 90       	pop	r11
    3c46:	af 90       	pop	r10
    3c48:	9f 90       	pop	r9
    3c4a:	8f 90       	pop	r8
    3c4c:	7f 90       	pop	r7
    3c4e:	6f 90       	pop	r6
    3c50:	5f 90       	pop	r5
    3c52:	4f 90       	pop	r4
    3c54:	3f 90       	pop	r3
    3c56:	2f 90       	pop	r2
    3c58:	08 95       	ret

00003c5a <_ZN8SdVolume6fatPutEmm>:
    3c5a:	4f 92       	push	r4
    3c5c:	5f 92       	push	r5
    3c5e:	6f 92       	push	r6
    3c60:	7f 92       	push	r7
    3c62:	8f 92       	push	r8
    3c64:	9f 92       	push	r9
    3c66:	af 92       	push	r10
    3c68:	bf 92       	push	r11
    3c6a:	cf 92       	push	r12
    3c6c:	df 92       	push	r13
    3c6e:	ef 92       	push	r14
    3c70:	ff 92       	push	r15
    3c72:	0f 93       	push	r16
    3c74:	1f 93       	push	r17
    3c76:	cf 93       	push	r28
    3c78:	df 93       	push	r29
    3c7a:	ec 01       	movw	r28, r24
    3c7c:	6a 01       	movw	r12, r20
    3c7e:	7b 01       	movw	r14, r22
    3c80:	48 01       	movw	r8, r16
    3c82:	59 01       	movw	r10, r18
    3c84:	42 30       	cpi	r20, 0x02	; 2
    3c86:	51 05       	cpc	r21, r1
    3c88:	61 05       	cpc	r22, r1
    3c8a:	71 05       	cpc	r23, r1
    3c8c:	08 f4       	brcc	.+2      	; 0x3c90 <_ZN8SdVolume6fatPutEmm+0x36>
    3c8e:	76 c0       	rjmp	.+236    	; 0x3d7c <_ZN8SdVolume6fatPutEmm+0x122>
    3c90:	49 85       	ldd	r20, Y+9	; 0x09
    3c92:	5a 85       	ldd	r21, Y+10	; 0x0a
    3c94:	6b 85       	ldd	r22, Y+11	; 0x0b
    3c96:	7c 85       	ldd	r23, Y+12	; 0x0c
    3c98:	4f 5f       	subi	r20, 0xFF	; 255
    3c9a:	5f 4f       	sbci	r21, 0xFF	; 255
    3c9c:	6f 4f       	sbci	r22, 0xFF	; 255
    3c9e:	7f 4f       	sbci	r23, 0xFF	; 255
    3ca0:	4c 15       	cp	r20, r12
    3ca2:	5d 05       	cpc	r21, r13
    3ca4:	6e 05       	cpc	r22, r14
    3ca6:	7f 05       	cpc	r23, r15
    3ca8:	08 f4       	brcc	.+2      	; 0x3cac <_ZN8SdVolume6fatPutEmm+0x52>
    3caa:	6a c0       	rjmp	.+212    	; 0x3d80 <_ZN8SdVolume6fatPutEmm+0x126>
    3cac:	4b 89       	ldd	r20, Y+19	; 0x13
    3cae:	5c 89       	ldd	r21, Y+20	; 0x14
    3cb0:	6d 89       	ldd	r22, Y+21	; 0x15
    3cb2:	7e 89       	ldd	r23, Y+22	; 0x16
    3cb4:	8f 89       	ldd	r24, Y+23	; 0x17
    3cb6:	80 31       	cpi	r24, 0x10	; 16
    3cb8:	29 f4       	brne	.+10     	; 0x3cc4 <_ZN8SdVolume6fatPutEmm+0x6a>
    3cba:	4d 2c       	mov	r4, r13
    3cbc:	5e 2c       	mov	r5, r14
    3cbe:	6f 2c       	mov	r6, r15
    3cc0:	77 24       	eor	r7, r7
    3cc2:	0a c0       	rjmp	.+20     	; 0x3cd8 <_ZN8SdVolume6fatPutEmm+0x7e>
    3cc4:	26 01       	movw	r4, r12
    3cc6:	37 01       	movw	r6, r14
    3cc8:	68 94       	set
    3cca:	16 f8       	bld	r1, 6
    3ccc:	76 94       	lsr	r7
    3cce:	67 94       	ror	r6
    3cd0:	57 94       	ror	r5
    3cd2:	47 94       	ror	r4
    3cd4:	16 94       	lsr	r1
    3cd6:	d1 f7       	brne	.-12     	; 0x3ccc <_ZN8SdVolume6fatPutEmm+0x72>
    3cd8:	44 0e       	add	r4, r20
    3cda:	55 1e       	adc	r5, r21
    3cdc:	66 1e       	adc	r6, r22
    3cde:	77 1e       	adc	r7, r23
    3ce0:	40 91 07 01 	lds	r20, 0x0107
    3ce4:	50 91 08 01 	lds	r21, 0x0108
    3ce8:	60 91 09 01 	lds	r22, 0x0109
    3cec:	70 91 0a 01 	lds	r23, 0x010A
    3cf0:	44 16       	cp	r4, r20
    3cf2:	55 06       	cpc	r5, r21
    3cf4:	66 06       	cpc	r6, r22
    3cf6:	77 06       	cpc	r7, r23
    3cf8:	39 f0       	breq	.+14     	; 0x3d08 <_ZN8SdVolume6fatPutEmm+0xae>
    3cfa:	40 e0       	ldi	r20, 0x00	; 0
    3cfc:	c3 01       	movw	r24, r6
    3cfe:	b2 01       	movw	r22, r4
    3d00:	0e 94 b8 1c 	call	0x3970	; 0x3970 <_ZN8SdVolume13cacheRawBlockEmh>
    3d04:	88 23       	and	r24, r24
    3d06:	f1 f1       	breq	.+124    	; 0x3d84 <_ZN8SdVolume6fatPutEmm+0x12a>
    3d08:	8f 89       	ldd	r24, Y+23	; 0x17
    3d0a:	80 31       	cpi	r24, 0x10	; 16
    3d0c:	61 f4       	brne	.+24     	; 0x3d26 <_ZN8SdVolume6fatPutEmm+0xcc>
    3d0e:	dd 24       	eor	r13, r13
    3d10:	ee 24       	eor	r14, r14
    3d12:	ff 24       	eor	r15, r15
    3d14:	c6 01       	movw	r24, r12
    3d16:	88 0f       	add	r24, r24
    3d18:	99 1f       	adc	r25, r25
    3d1a:	fc 01       	movw	r30, r24
    3d1c:	ef 50       	subi	r30, 0x0F	; 15
    3d1e:	fd 4f       	sbci	r31, 0xFD	; 253
    3d20:	91 82       	std	Z+1, r9	; 0x01
    3d22:	80 82       	st	Z, r8
    3d24:	11 c0       	rjmp	.+34     	; 0x3d48 <_ZN8SdVolume6fatPutEmm+0xee>
    3d26:	e8 94       	clt
    3d28:	c7 f8       	bld	r12, 7
    3d2a:	dd 24       	eor	r13, r13
    3d2c:	ee 24       	eor	r14, r14
    3d2e:	ff 24       	eor	r15, r15
    3d30:	c6 01       	movw	r24, r12
    3d32:	88 0f       	add	r24, r24
    3d34:	99 1f       	adc	r25, r25
    3d36:	88 0f       	add	r24, r24
    3d38:	99 1f       	adc	r25, r25
    3d3a:	fc 01       	movw	r30, r24
    3d3c:	ef 50       	subi	r30, 0x0F	; 15
    3d3e:	fd 4f       	sbci	r31, 0xFD	; 253
    3d40:	80 82       	st	Z, r8
    3d42:	91 82       	std	Z+1, r9	; 0x01
    3d44:	a2 82       	std	Z+2, r10	; 0x02
    3d46:	b3 82       	std	Z+3, r11	; 0x03
    3d48:	80 91 ee 02 	lds	r24, 0x02EE
    3d4c:	81 60       	ori	r24, 0x01	; 1
    3d4e:	80 93 ee 02 	sts	0x02EE, r24
    3d52:	8a 89       	ldd	r24, Y+18	; 0x12
    3d54:	82 30       	cpi	r24, 0x02	; 2
    3d56:	c0 f0       	brcs	.+48     	; 0x3d88 <_ZN8SdVolume6fatPutEmm+0x12e>
    3d58:	8d 81       	ldd	r24, Y+5	; 0x05
    3d5a:	9e 81       	ldd	r25, Y+6	; 0x06
    3d5c:	af 81       	ldd	r26, Y+7	; 0x07
    3d5e:	b8 85       	ldd	r27, Y+8	; 0x08
    3d60:	48 0e       	add	r4, r24
    3d62:	59 1e       	adc	r5, r25
    3d64:	6a 1e       	adc	r6, r26
    3d66:	7b 1e       	adc	r7, r27
    3d68:	40 92 ea 02 	sts	0x02EA, r4
    3d6c:	50 92 eb 02 	sts	0x02EB, r5
    3d70:	60 92 ec 02 	sts	0x02EC, r6
    3d74:	70 92 ed 02 	sts	0x02ED, r7
    3d78:	81 e0       	ldi	r24, 0x01	; 1
    3d7a:	07 c0       	rjmp	.+14     	; 0x3d8a <_ZN8SdVolume6fatPutEmm+0x130>
    3d7c:	80 e0       	ldi	r24, 0x00	; 0
    3d7e:	05 c0       	rjmp	.+10     	; 0x3d8a <_ZN8SdVolume6fatPutEmm+0x130>
    3d80:	80 e0       	ldi	r24, 0x00	; 0
    3d82:	03 c0       	rjmp	.+6      	; 0x3d8a <_ZN8SdVolume6fatPutEmm+0x130>
    3d84:	80 e0       	ldi	r24, 0x00	; 0
    3d86:	01 c0       	rjmp	.+2      	; 0x3d8a <_ZN8SdVolume6fatPutEmm+0x130>
    3d88:	81 e0       	ldi	r24, 0x01	; 1
    3d8a:	df 91       	pop	r29
    3d8c:	cf 91       	pop	r28
    3d8e:	1f 91       	pop	r17
    3d90:	0f 91       	pop	r16
    3d92:	ff 90       	pop	r15
    3d94:	ef 90       	pop	r14
    3d96:	df 90       	pop	r13
    3d98:	cf 90       	pop	r12
    3d9a:	bf 90       	pop	r11
    3d9c:	af 90       	pop	r10
    3d9e:	9f 90       	pop	r9
    3da0:	8f 90       	pop	r8
    3da2:	7f 90       	pop	r7
    3da4:	6f 90       	pop	r6
    3da6:	5f 90       	pop	r5
    3da8:	4f 90       	pop	r4
    3daa:	08 95       	ret

00003dac <_ZN8SdVolume15allocContiguousEmPm>:
    3dac:	2f 92       	push	r2
    3dae:	3f 92       	push	r3
    3db0:	4f 92       	push	r4
    3db2:	5f 92       	push	r5
    3db4:	6f 92       	push	r6
    3db6:	7f 92       	push	r7
    3db8:	8f 92       	push	r8
    3dba:	9f 92       	push	r9
    3dbc:	af 92       	push	r10
    3dbe:	bf 92       	push	r11
    3dc0:	cf 92       	push	r12
    3dc2:	df 92       	push	r13
    3dc4:	ef 92       	push	r14
    3dc6:	ff 92       	push	r15
    3dc8:	0f 93       	push	r16
    3dca:	1f 93       	push	r17
    3dcc:	cf 93       	push	r28
    3dce:	df 93       	push	r29
    3dd0:	cd b7       	in	r28, 0x3d	; 61
    3dd2:	de b7       	in	r29, 0x3e	; 62
    3dd4:	2f 97       	sbiw	r28, 0x0f	; 15
    3dd6:	0f b6       	in	r0, 0x3f	; 63
    3dd8:	f8 94       	cli
    3dda:	de bf       	out	0x3e, r29	; 62
    3ddc:	0f be       	out	0x3f, r0	; 63
    3dde:	cd bf       	out	0x3d, r28	; 61
    3de0:	1c 01       	movw	r2, r24
    3de2:	49 87       	std	Y+9, r20	; 0x09
    3de4:	5a 87       	std	Y+10, r21	; 0x0a
    3de6:	6b 87       	std	Y+11, r22	; 0x0b
    3de8:	7c 87       	std	Y+12, r23	; 0x0c
    3dea:	3e 87       	std	Y+14, r19	; 0x0e
    3dec:	2d 87       	std	Y+13, r18	; 0x0d
    3dee:	f9 01       	movw	r30, r18
    3df0:	80 81       	ld	r24, Z
    3df2:	91 81       	ldd	r25, Z+1	; 0x01
    3df4:	a2 81       	ldd	r26, Z+2	; 0x02
    3df6:	b3 81       	ldd	r27, Z+3	; 0x03
    3df8:	00 97       	sbiw	r24, 0x00	; 0
    3dfa:	a1 05       	cpc	r26, r1
    3dfc:	b1 05       	cpc	r27, r1
    3dfe:	49 f0       	breq	.+18     	; 0x3e12 <_ZN8SdVolume15allocContiguousEmPm+0x66>
    3e00:	2c 01       	movw	r4, r24
    3e02:	3d 01       	movw	r6, r26
    3e04:	ff ef       	ldi	r31, 0xFF	; 255
    3e06:	4f 1a       	sub	r4, r31
    3e08:	5f 0a       	sbc	r5, r31
    3e0a:	6f 0a       	sbc	r6, r31
    3e0c:	7f 0a       	sbc	r7, r31
    3e0e:	1f 86       	std	Y+15, r1	; 0x0f
    3e10:	11 c0       	rjmp	.+34     	; 0x3e34 <_ZN8SdVolume15allocContiguousEmPm+0x88>
    3e12:	d1 01       	movw	r26, r2
    3e14:	4d 90       	ld	r4, X+
    3e16:	5d 90       	ld	r5, X+
    3e18:	6d 90       	ld	r6, X+
    3e1a:	7c 90       	ld	r7, X
    3e1c:	b1 e0       	ldi	r27, 0x01	; 1
    3e1e:	bf 87       	std	Y+15, r27	; 0x0f
    3e20:	29 85       	ldd	r18, Y+9	; 0x09
    3e22:	3a 85       	ldd	r19, Y+10	; 0x0a
    3e24:	4b 85       	ldd	r20, Y+11	; 0x0b
    3e26:	5c 85       	ldd	r21, Y+12	; 0x0c
    3e28:	21 30       	cpi	r18, 0x01	; 1
    3e2a:	31 05       	cpc	r19, r1
    3e2c:	41 05       	cpc	r20, r1
    3e2e:	51 05       	cpc	r21, r1
    3e30:	09 f0       	breq	.+2      	; 0x3e34 <_ZN8SdVolume15allocContiguousEmPm+0x88>
    3e32:	1f 86       	std	Y+15, r1	; 0x0f
    3e34:	f1 01       	movw	r30, r2
    3e36:	81 85       	ldd	r24, Z+9	; 0x09
    3e38:	92 85       	ldd	r25, Z+10	; 0x0a
    3e3a:	a3 85       	ldd	r26, Z+11	; 0x0b
    3e3c:	b4 85       	ldd	r27, Z+12	; 0x0c
    3e3e:	9c 01       	movw	r18, r24
    3e40:	ad 01       	movw	r20, r26
    3e42:	2f 5f       	subi	r18, 0xFF	; 255
    3e44:	3f 4f       	sbci	r19, 0xFF	; 255
    3e46:	4f 4f       	sbci	r20, 0xFF	; 255
    3e48:	5f 4f       	sbci	r21, 0xFF	; 255
    3e4a:	2d 83       	std	Y+5, r18	; 0x05
    3e4c:	3e 83       	std	Y+6, r19	; 0x06
    3e4e:	4f 83       	std	Y+7, r20	; 0x07
    3e50:	58 87       	std	Y+8, r21	; 0x08
    3e52:	89 2b       	or	r24, r25
    3e54:	8a 2b       	or	r24, r26
    3e56:	8b 2b       	or	r24, r27
    3e58:	09 f4       	brne	.+2      	; 0x3e5c <_ZN8SdVolume15allocContiguousEmPm+0xb0>
    3e5a:	59 c0       	rjmp	.+178    	; 0x3f0e <_ZN8SdVolume15allocContiguousEmPm+0x162>
    3e5c:	73 01       	movw	r14, r6
    3e5e:	62 01       	movw	r12, r4
    3e60:	81 2c       	mov	r8, r1
    3e62:	91 2c       	mov	r9, r1
    3e64:	54 01       	movw	r10, r8
    3e66:	12 e0       	ldi	r17, 0x02	; 2
    3e68:	00 e0       	ldi	r16, 0x00	; 0
    3e6a:	8d 81       	ldd	r24, Y+5	; 0x05
    3e6c:	9e 81       	ldd	r25, Y+6	; 0x06
    3e6e:	af 81       	ldd	r26, Y+7	; 0x07
    3e70:	b8 85       	ldd	r27, Y+8	; 0x08
    3e72:	8c 15       	cp	r24, r12
    3e74:	9d 05       	cpc	r25, r13
    3e76:	ae 05       	cpc	r26, r14
    3e78:	bf 05       	cpc	r27, r15
    3e7a:	40 f4       	brcc	.+16     	; 0x3e8c <_ZN8SdVolume15allocContiguousEmPm+0xe0>
    3e7c:	c1 2e       	mov	r12, r17
    3e7e:	d0 2e       	mov	r13, r16
    3e80:	e1 2c       	mov	r14, r1
    3e82:	f1 2c       	mov	r15, r1
    3e84:	41 2e       	mov	r4, r17
    3e86:	50 2e       	mov	r5, r16
    3e88:	61 2c       	mov	r6, r1
    3e8a:	71 2c       	mov	r7, r1
    3e8c:	9e 01       	movw	r18, r28
    3e8e:	2f 5f       	subi	r18, 0xFF	; 255
    3e90:	3f 4f       	sbci	r19, 0xFF	; 255
    3e92:	b7 01       	movw	r22, r14
    3e94:	a6 01       	movw	r20, r12
    3e96:	c1 01       	movw	r24, r2
    3e98:	0e 94 1c 1d 	call	0x3a38	; 0x3a38 <_ZNK8SdVolume6fatGetEmPm>
    3e9c:	88 23       	and	r24, r24
    3e9e:	b9 f1       	breq	.+110    	; 0x3f0e <_ZN8SdVolume15allocContiguousEmPm+0x162>
    3ea0:	89 81       	ldd	r24, Y+1	; 0x01
    3ea2:	9a 81       	ldd	r25, Y+2	; 0x02
    3ea4:	ab 81       	ldd	r26, Y+3	; 0x03
    3ea6:	bc 81       	ldd	r27, Y+4	; 0x04
    3ea8:	89 2b       	or	r24, r25
    3eaa:	8a 2b       	or	r24, r26
    3eac:	8b 2b       	or	r24, r27
    3eae:	41 f0       	breq	.+16     	; 0x3ec0 <_ZN8SdVolume15allocContiguousEmPm+0x114>
    3eb0:	26 01       	movw	r4, r12
    3eb2:	37 01       	movw	r6, r14
    3eb4:	9f ef       	ldi	r25, 0xFF	; 255
    3eb6:	49 1a       	sub	r4, r25
    3eb8:	59 0a       	sbc	r5, r25
    3eba:	69 0a       	sbc	r6, r25
    3ebc:	79 0a       	sbc	r7, r25
    3ebe:	12 c0       	rjmp	.+36     	; 0x3ee4 <_ZN8SdVolume15allocContiguousEmPm+0x138>
    3ec0:	d7 01       	movw	r26, r14
    3ec2:	c6 01       	movw	r24, r12
    3ec4:	01 96       	adiw	r24, 0x01	; 1
    3ec6:	a1 1d       	adc	r26, r1
    3ec8:	b1 1d       	adc	r27, r1
    3eca:	84 19       	sub	r24, r4
    3ecc:	95 09       	sbc	r25, r5
    3ece:	a6 09       	sbc	r26, r6
    3ed0:	b7 09       	sbc	r27, r7
    3ed2:	29 85       	ldd	r18, Y+9	; 0x09
    3ed4:	3a 85       	ldd	r19, Y+10	; 0x0a
    3ed6:	4b 85       	ldd	r20, Y+11	; 0x0b
    3ed8:	5c 85       	ldd	r21, Y+12	; 0x0c
    3eda:	82 17       	cp	r24, r18
    3edc:	93 07       	cpc	r25, r19
    3ede:	a4 07       	cpc	r26, r20
    3ee0:	b5 07       	cpc	r27, r21
    3ee2:	b9 f0       	breq	.+46     	; 0x3f12 <_ZN8SdVolume15allocContiguousEmPm+0x166>
    3ee4:	3f ef       	ldi	r19, 0xFF	; 255
    3ee6:	83 1a       	sub	r8, r19
    3ee8:	93 0a       	sbc	r9, r19
    3eea:	a3 0a       	sbc	r10, r19
    3eec:	b3 0a       	sbc	r11, r19
    3eee:	4f ef       	ldi	r20, 0xFF	; 255
    3ef0:	c4 1a       	sub	r12, r20
    3ef2:	d4 0a       	sbc	r13, r20
    3ef4:	e4 0a       	sbc	r14, r20
    3ef6:	f4 0a       	sbc	r15, r20
    3ef8:	f1 01       	movw	r30, r2
    3efa:	81 85       	ldd	r24, Z+9	; 0x09
    3efc:	92 85       	ldd	r25, Z+10	; 0x0a
    3efe:	a3 85       	ldd	r26, Z+11	; 0x0b
    3f00:	b4 85       	ldd	r27, Z+12	; 0x0c
    3f02:	88 16       	cp	r8, r24
    3f04:	99 06       	cpc	r9, r25
    3f06:	aa 06       	cpc	r10, r26
    3f08:	bb 06       	cpc	r11, r27
    3f0a:	08 f4       	brcc	.+2      	; 0x3f0e <_ZN8SdVolume15allocContiguousEmPm+0x162>
    3f0c:	ae cf       	rjmp	.-164    	; 0x3e6a <_ZN8SdVolume15allocContiguousEmPm+0xbe>
    3f0e:	80 e0       	ldi	r24, 0x00	; 0
    3f10:	57 c0       	rjmp	.+174    	; 0x3fc0 <_ZN8SdVolume15allocContiguousEmPm+0x214>
    3f12:	0f ef       	ldi	r16, 0xFF	; 255
    3f14:	1f ef       	ldi	r17, 0xFF	; 255
    3f16:	2f ef       	ldi	r18, 0xFF	; 255
    3f18:	3f e0       	ldi	r19, 0x0F	; 15
    3f1a:	b7 01       	movw	r22, r14
    3f1c:	a6 01       	movw	r20, r12
    3f1e:	c1 01       	movw	r24, r2
    3f20:	0e 94 2d 1e 	call	0x3c5a	; 0x3c5a <_ZN8SdVolume6fatPutEmm>
    3f24:	81 11       	cpse	r24, r1
    3f26:	12 c0       	rjmp	.+36     	; 0x3f4c <_ZN8SdVolume15allocContiguousEmPm+0x1a0>
    3f28:	4b c0       	rjmp	.+150    	; 0x3fc0 <_ZN8SdVolume15allocContiguousEmPm+0x214>
    3f2a:	97 01       	movw	r18, r14
    3f2c:	86 01       	movw	r16, r12
    3f2e:	48 01       	movw	r8, r16
    3f30:	59 01       	movw	r10, r18
    3f32:	f1 e0       	ldi	r31, 0x01	; 1
    3f34:	8f 1a       	sub	r8, r31
    3f36:	91 08       	sbc	r9, r1
    3f38:	a1 08       	sbc	r10, r1
    3f3a:	b1 08       	sbc	r11, r1
    3f3c:	b5 01       	movw	r22, r10
    3f3e:	a4 01       	movw	r20, r8
    3f40:	c1 01       	movw	r24, r2
    3f42:	0e 94 2d 1e 	call	0x3c5a	; 0x3c5a <_ZN8SdVolume6fatPutEmm>
    3f46:	81 11       	cpse	r24, r1
    3f48:	07 c0       	rjmp	.+14     	; 0x3f58 <_ZN8SdVolume15allocContiguousEmPm+0x1ac>
    3f4a:	35 c0       	rjmp	.+106    	; 0x3fb6 <_ZN8SdVolume15allocContiguousEmPm+0x20a>
    3f4c:	4c 14       	cp	r4, r12
    3f4e:	5d 04       	cpc	r5, r13
    3f50:	6e 04       	cpc	r6, r14
    3f52:	7f 04       	cpc	r7, r15
    3f54:	50 f3       	brcs	.-44     	; 0x3f2a <_ZN8SdVolume15allocContiguousEmPm+0x17e>
    3f56:	08 c0       	rjmp	.+16     	; 0x3f68 <_ZN8SdVolume15allocContiguousEmPm+0x1bc>
    3f58:	48 14       	cp	r4, r8
    3f5a:	59 04       	cpc	r5, r9
    3f5c:	6a 04       	cpc	r6, r10
    3f5e:	7b 04       	cpc	r7, r11
    3f60:	18 f4       	brcc	.+6      	; 0x3f68 <_ZN8SdVolume15allocContiguousEmPm+0x1bc>
    3f62:	95 01       	movw	r18, r10
    3f64:	84 01       	movw	r16, r8
    3f66:	e3 cf       	rjmp	.-58     	; 0x3f2e <_ZN8SdVolume15allocContiguousEmPm+0x182>
    3f68:	ad 85       	ldd	r26, Y+13	; 0x0d
    3f6a:	be 85       	ldd	r27, Y+14	; 0x0e
    3f6c:	4d 91       	ld	r20, X+
    3f6e:	5d 91       	ld	r21, X+
    3f70:	6d 91       	ld	r22, X+
    3f72:	7c 91       	ld	r23, X
    3f74:	41 15       	cp	r20, r1
    3f76:	51 05       	cpc	r21, r1
    3f78:	61 05       	cpc	r22, r1
    3f7a:	71 05       	cpc	r23, r1
    3f7c:	39 f0       	breq	.+14     	; 0x3f8c <_ZN8SdVolume15allocContiguousEmPm+0x1e0>
    3f7e:	93 01       	movw	r18, r6
    3f80:	82 01       	movw	r16, r4
    3f82:	c1 01       	movw	r24, r2
    3f84:	0e 94 2d 1e 	call	0x3c5a	; 0x3c5a <_ZN8SdVolume6fatPutEmm>
    3f88:	88 23       	and	r24, r24
    3f8a:	b9 f0       	breq	.+46     	; 0x3fba <_ZN8SdVolume15allocContiguousEmPm+0x20e>
    3f8c:	ed 85       	ldd	r30, Y+13	; 0x0d
    3f8e:	fe 85       	ldd	r31, Y+14	; 0x0e
    3f90:	40 82       	st	Z, r4
    3f92:	51 82       	std	Z+1, r5	; 0x01
    3f94:	62 82       	std	Z+2, r6	; 0x02
    3f96:	73 82       	std	Z+3, r7	; 0x03
    3f98:	ff 85       	ldd	r31, Y+15	; 0x0f
    3f9a:	ff 23       	and	r31, r31
    3f9c:	81 f0       	breq	.+32     	; 0x3fbe <_ZN8SdVolume15allocContiguousEmPm+0x212>
    3f9e:	d3 01       	movw	r26, r6
    3fa0:	c2 01       	movw	r24, r4
    3fa2:	01 96       	adiw	r24, 0x01	; 1
    3fa4:	a1 1d       	adc	r26, r1
    3fa6:	b1 1d       	adc	r27, r1
    3fa8:	f1 01       	movw	r30, r2
    3faa:	80 83       	st	Z, r24
    3fac:	91 83       	std	Z+1, r25	; 0x01
    3fae:	a2 83       	std	Z+2, r26	; 0x02
    3fb0:	b3 83       	std	Z+3, r27	; 0x03
    3fb2:	81 e0       	ldi	r24, 0x01	; 1
    3fb4:	05 c0       	rjmp	.+10     	; 0x3fc0 <_ZN8SdVolume15allocContiguousEmPm+0x214>
    3fb6:	80 e0       	ldi	r24, 0x00	; 0
    3fb8:	03 c0       	rjmp	.+6      	; 0x3fc0 <_ZN8SdVolume15allocContiguousEmPm+0x214>
    3fba:	80 e0       	ldi	r24, 0x00	; 0
    3fbc:	01 c0       	rjmp	.+2      	; 0x3fc0 <_ZN8SdVolume15allocContiguousEmPm+0x214>
    3fbe:	81 e0       	ldi	r24, 0x01	; 1
    3fc0:	2f 96       	adiw	r28, 0x0f	; 15
    3fc2:	0f b6       	in	r0, 0x3f	; 63
    3fc4:	f8 94       	cli
    3fc6:	de bf       	out	0x3e, r29	; 62
    3fc8:	0f be       	out	0x3f, r0	; 63
    3fca:	cd bf       	out	0x3d, r28	; 61
    3fcc:	df 91       	pop	r29
    3fce:	cf 91       	pop	r28
    3fd0:	1f 91       	pop	r17
    3fd2:	0f 91       	pop	r16
    3fd4:	ff 90       	pop	r15
    3fd6:	ef 90       	pop	r14
    3fd8:	df 90       	pop	r13
    3fda:	cf 90       	pop	r12
    3fdc:	bf 90       	pop	r11
    3fde:	af 90       	pop	r10
    3fe0:	9f 90       	pop	r9
    3fe2:	8f 90       	pop	r8
    3fe4:	7f 90       	pop	r7
    3fe6:	6f 90       	pop	r6
    3fe8:	5f 90       	pop	r5
    3fea:	4f 90       	pop	r4
    3fec:	3f 90       	pop	r3
    3fee:	2f 90       	pop	r2
    3ff0:	08 95       	ret

00003ff2 <_ZN8SdVolume9freeChainEm>:
    3ff2:	2f 92       	push	r2
    3ff4:	3f 92       	push	r3
    3ff6:	4f 92       	push	r4
    3ff8:	5f 92       	push	r5
    3ffa:	6f 92       	push	r6
    3ffc:	7f 92       	push	r7
    3ffe:	8f 92       	push	r8
    4000:	9f 92       	push	r9
    4002:	af 92       	push	r10
    4004:	bf 92       	push	r11
    4006:	cf 92       	push	r12
    4008:	df 92       	push	r13
    400a:	ef 92       	push	r14
    400c:	ff 92       	push	r15
    400e:	0f 93       	push	r16
    4010:	1f 93       	push	r17
    4012:	cf 93       	push	r28
    4014:	df 93       	push	r29
    4016:	00 d0       	rcall	.+0      	; 0x4018 <_ZN8SdVolume9freeChainEm+0x26>
    4018:	00 d0       	rcall	.+0      	; 0x401a <_ZN8SdVolume9freeChainEm+0x28>
    401a:	cd b7       	in	r28, 0x3d	; 61
    401c:	de b7       	in	r29, 0x3e	; 62
    401e:	5c 01       	movw	r10, r24
    4020:	6a 01       	movw	r12, r20
    4022:	7b 01       	movw	r14, r22
    4024:	82 e0       	ldi	r24, 0x02	; 2
    4026:	90 e0       	ldi	r25, 0x00	; 0
    4028:	a0 e0       	ldi	r26, 0x00	; 0
    402a:	b0 e0       	ldi	r27, 0x00	; 0
    402c:	f5 01       	movw	r30, r10
    402e:	80 83       	st	Z, r24
    4030:	91 83       	std	Z+1, r25	; 0x01
    4032:	a2 83       	std	Z+2, r26	; 0x02
    4034:	b3 83       	std	Z+3, r27	; 0x03
    4036:	0f 2e       	mov	r0, r31
    4038:	f8 ef       	ldi	r31, 0xF8	; 248
    403a:	6f 2e       	mov	r6, r31
    403c:	f0 2d       	mov	r31, r0
    403e:	77 24       	eor	r7, r7
    4040:	7a 94       	dec	r7
    4042:	88 24       	eor	r8, r8
    4044:	8a 94       	dec	r8
    4046:	0f 2e       	mov	r0, r31
    4048:	ff e0       	ldi	r31, 0x0F	; 15
    404a:	9f 2e       	mov	r9, r31
    404c:	f0 2d       	mov	r31, r0
    404e:	0f 2e       	mov	r0, r31
    4050:	f8 ef       	ldi	r31, 0xF8	; 248
    4052:	2f 2e       	mov	r2, r31
    4054:	f0 2d       	mov	r31, r0
    4056:	33 24       	eor	r3, r3
    4058:	3a 94       	dec	r3
    405a:	41 2c       	mov	r4, r1
    405c:	51 2c       	mov	r5, r1
    405e:	9e 01       	movw	r18, r28
    4060:	2f 5f       	subi	r18, 0xFF	; 255
    4062:	3f 4f       	sbci	r19, 0xFF	; 255
    4064:	b7 01       	movw	r22, r14
    4066:	a6 01       	movw	r20, r12
    4068:	c5 01       	movw	r24, r10
    406a:	0e 94 1c 1d 	call	0x3a38	; 0x3a38 <_ZNK8SdVolume6fatGetEmPm>
    406e:	88 23       	and	r24, r24
    4070:	09 f1       	breq	.+66     	; 0x40b4 <_ZN8SdVolume9freeChainEm+0xc2>
    4072:	00 e0       	ldi	r16, 0x00	; 0
    4074:	10 e0       	ldi	r17, 0x00	; 0
    4076:	98 01       	movw	r18, r16
    4078:	b7 01       	movw	r22, r14
    407a:	a6 01       	movw	r20, r12
    407c:	c5 01       	movw	r24, r10
    407e:	0e 94 2d 1e 	call	0x3c5a	; 0x3c5a <_ZN8SdVolume6fatPutEmm>
    4082:	88 23       	and	r24, r24
    4084:	b9 f0       	breq	.+46     	; 0x40b4 <_ZN8SdVolume9freeChainEm+0xc2>
    4086:	c9 80       	ldd	r12, Y+1	; 0x01
    4088:	da 80       	ldd	r13, Y+2	; 0x02
    408a:	eb 80       	ldd	r14, Y+3	; 0x03
    408c:	fc 80       	ldd	r15, Y+4	; 0x04
    408e:	f5 01       	movw	r30, r10
    4090:	87 89       	ldd	r24, Z+23	; 0x17
    4092:	80 31       	cpi	r24, 0x10	; 16
    4094:	29 f4       	brne	.+10     	; 0x40a0 <_ZN8SdVolume9freeChainEm+0xae>
    4096:	82 2d       	mov	r24, r2
    4098:	93 2d       	mov	r25, r3
    409a:	a4 2d       	mov	r26, r4
    409c:	b5 2d       	mov	r27, r5
    409e:	04 c0       	rjmp	.+8      	; 0x40a8 <_ZN8SdVolume9freeChainEm+0xb6>
    40a0:	86 2d       	mov	r24, r6
    40a2:	97 2d       	mov	r25, r7
    40a4:	a8 2d       	mov	r26, r8
    40a6:	b9 2d       	mov	r27, r9
    40a8:	c8 16       	cp	r12, r24
    40aa:	d9 06       	cpc	r13, r25
    40ac:	ea 06       	cpc	r14, r26
    40ae:	fb 06       	cpc	r15, r27
    40b0:	b0 f2       	brcs	.-84     	; 0x405e <_ZN8SdVolume9freeChainEm+0x6c>
    40b2:	02 c0       	rjmp	.+4      	; 0x40b8 <_ZN8SdVolume9freeChainEm+0xc6>
    40b4:	80 e0       	ldi	r24, 0x00	; 0
    40b6:	01 c0       	rjmp	.+2      	; 0x40ba <_ZN8SdVolume9freeChainEm+0xc8>
    40b8:	81 e0       	ldi	r24, 0x01	; 1
    40ba:	0f 90       	pop	r0
    40bc:	0f 90       	pop	r0
    40be:	0f 90       	pop	r0
    40c0:	0f 90       	pop	r0
    40c2:	df 91       	pop	r29
    40c4:	cf 91       	pop	r28
    40c6:	1f 91       	pop	r17
    40c8:	0f 91       	pop	r16
    40ca:	ff 90       	pop	r15
    40cc:	ef 90       	pop	r14
    40ce:	df 90       	pop	r13
    40d0:	cf 90       	pop	r12
    40d2:	bf 90       	pop	r11
    40d4:	af 90       	pop	r10
    40d6:	9f 90       	pop	r9
    40d8:	8f 90       	pop	r8
    40da:	7f 90       	pop	r7
    40dc:	6f 90       	pop	r6
    40de:	5f 90       	pop	r5
    40e0:	4f 90       	pop	r4
    40e2:	3f 90       	pop	r3
    40e4:	2f 90       	pop	r2
    40e6:	08 95       	ret

000040e8 <_ZN8SdVolume4initEP7Sd2Cardh>:
    40e8:	8f 92       	push	r8
    40ea:	9f 92       	push	r9
    40ec:	af 92       	push	r10
    40ee:	bf 92       	push	r11
    40f0:	cf 92       	push	r12
    40f2:	df 92       	push	r13
    40f4:	ef 92       	push	r14
    40f6:	ff 92       	push	r15
    40f8:	0f 93       	push	r16
    40fa:	1f 93       	push	r17
    40fc:	cf 93       	push	r28
    40fe:	df 93       	push	r29
    4100:	ec 01       	movw	r28, r24
    4102:	14 2f       	mov	r17, r20
    4104:	70 93 f0 02 	sts	0x02F0, r23
    4108:	60 93 ef 02 	sts	0x02EF, r22
    410c:	44 23       	and	r20, r20
    410e:	51 f1       	breq	.+84     	; 0x4164 <_ZN8SdVolume4initEP7Sd2Cardh+0x7c>
    4110:	45 30       	cpi	r20, 0x05	; 5
    4112:	08 f0       	brcs	.+2      	; 0x4116 <_ZN8SdVolume4initEP7Sd2Cardh+0x2e>
    4114:	fb c0       	rjmp	.+502    	; 0x430c <_ZN8SdVolume4initEP7Sd2Cardh+0x224>
    4116:	40 e0       	ldi	r20, 0x00	; 0
    4118:	60 e0       	ldi	r22, 0x00	; 0
    411a:	70 e0       	ldi	r23, 0x00	; 0
    411c:	cb 01       	movw	r24, r22
    411e:	0e 94 b8 1c 	call	0x3970	; 0x3970 <_ZN8SdVolume13cacheRawBlockEmh>
    4122:	88 23       	and	r24, r24
    4124:	09 f4       	brne	.+2      	; 0x4128 <_ZN8SdVolume4initEP7Sd2Cardh+0x40>
    4126:	f4 c0       	rjmp	.+488    	; 0x4310 <_ZN8SdVolume4initEP7Sd2Cardh+0x228>
    4128:	20 e1       	ldi	r18, 0x10	; 16
    412a:	12 9f       	mul	r17, r18
    412c:	f0 01       	movw	r30, r0
    412e:	11 24       	eor	r1, r1
    4130:	e1 56       	subi	r30, 0x61	; 97
    4132:	fb 4f       	sbci	r31, 0xFB	; 251
    4134:	80 81       	ld	r24, Z
    4136:	8f 77       	andi	r24, 0x7F	; 127
    4138:	09 f0       	breq	.+2      	; 0x413c <_ZN8SdVolume4initEP7Sd2Cardh+0x54>
    413a:	ec c0       	rjmp	.+472    	; 0x4314 <_ZN8SdVolume4initEP7Sd2Cardh+0x22c>
    413c:	84 85       	ldd	r24, Z+12	; 0x0c
    413e:	95 85       	ldd	r25, Z+13	; 0x0d
    4140:	a6 85       	ldd	r26, Z+14	; 0x0e
    4142:	b7 85       	ldd	r27, Z+15	; 0x0f
    4144:	84 36       	cpi	r24, 0x64	; 100
    4146:	91 05       	cpc	r25, r1
    4148:	a1 05       	cpc	r26, r1
    414a:	b1 05       	cpc	r27, r1
    414c:	08 f4       	brcc	.+2      	; 0x4150 <_ZN8SdVolume4initEP7Sd2Cardh+0x68>
    414e:	e4 c0       	rjmp	.+456    	; 0x4318 <_ZN8SdVolume4initEP7Sd2Cardh+0x230>
    4150:	c0 84       	ldd	r12, Z+8	; 0x08
    4152:	d1 84       	ldd	r13, Z+9	; 0x09
    4154:	e2 84       	ldd	r14, Z+10	; 0x0a
    4156:	f3 84       	ldd	r15, Z+11	; 0x0b
    4158:	c1 14       	cp	r12, r1
    415a:	d1 04       	cpc	r13, r1
    415c:	e1 04       	cpc	r14, r1
    415e:	f1 04       	cpc	r15, r1
    4160:	21 f4       	brne	.+8      	; 0x416a <_ZN8SdVolume4initEP7Sd2Cardh+0x82>
    4162:	dc c0       	rjmp	.+440    	; 0x431c <_ZN8SdVolume4initEP7Sd2Cardh+0x234>
    4164:	c1 2c       	mov	r12, r1
    4166:	d1 2c       	mov	r13, r1
    4168:	76 01       	movw	r14, r12
    416a:	40 e0       	ldi	r20, 0x00	; 0
    416c:	c7 01       	movw	r24, r14
    416e:	b6 01       	movw	r22, r12
    4170:	0e 94 b8 1c 	call	0x3970	; 0x3970 <_ZN8SdVolume13cacheRawBlockEmh>
    4174:	88 23       	and	r24, r24
    4176:	09 f4       	brne	.+2      	; 0x417a <_ZN8SdVolume4initEP7Sd2Cardh+0x92>
    4178:	d3 c0       	rjmp	.+422    	; 0x4320 <_ZN8SdVolume4initEP7Sd2Cardh+0x238>
    417a:	80 91 fc 02 	lds	r24, 0x02FC
    417e:	90 91 fd 02 	lds	r25, 0x02FD
    4182:	81 15       	cp	r24, r1
    4184:	92 40       	sbci	r25, 0x02	; 2
    4186:	09 f0       	breq	.+2      	; 0x418a <_ZN8SdVolume4initEP7Sd2Cardh+0xa2>
    4188:	cd c0       	rjmp	.+410    	; 0x4324 <_ZN8SdVolume4initEP7Sd2Cardh+0x23c>
    418a:	20 91 01 03 	lds	r18, 0x0301
    418e:	22 23       	and	r18, r18
    4190:	09 f4       	brne	.+2      	; 0x4194 <_ZN8SdVolume4initEP7Sd2Cardh+0xac>
    4192:	ca c0       	rjmp	.+404    	; 0x4328 <_ZN8SdVolume4initEP7Sd2Cardh+0x240>
    4194:	80 91 ff 02 	lds	r24, 0x02FF
    4198:	90 91 00 03 	lds	r25, 0x0300
    419c:	89 2b       	or	r24, r25
    419e:	09 f4       	brne	.+2      	; 0x41a2 <_ZN8SdVolume4initEP7Sd2Cardh+0xba>
    41a0:	c5 c0       	rjmp	.+394    	; 0x432c <_ZN8SdVolume4initEP7Sd2Cardh+0x244>
    41a2:	40 91 fe 02 	lds	r20, 0x02FE
    41a6:	44 23       	and	r20, r20
    41a8:	09 f4       	brne	.+2      	; 0x41ac <_ZN8SdVolume4initEP7Sd2Cardh+0xc4>
    41aa:	c2 c0       	rjmp	.+388    	; 0x4330 <_ZN8SdVolume4initEP7Sd2Cardh+0x248>
    41ac:	2a 8b       	std	Y+18, r18	; 0x12
    41ae:	4c 83       	std	Y+4, r20	; 0x04
    41b0:	1d 86       	std	Y+13, r1	; 0x0d
    41b2:	50 e0       	ldi	r21, 0x00	; 0
    41b4:	21 e0       	ldi	r18, 0x01	; 1
    41b6:	30 e0       	ldi	r19, 0x00	; 0
    41b8:	06 c0       	rjmp	.+12     	; 0x41c6 <_ZN8SdVolume4initEP7Sd2Cardh+0xde>
    41ba:	81 e0       	ldi	r24, 0x01	; 1
    41bc:	86 0f       	add	r24, r22
    41be:	8d 87       	std	Y+13, r24	; 0x0d
    41c0:	68 30       	cpi	r22, 0x08	; 8
    41c2:	08 f0       	brcs	.+2      	; 0x41c6 <_ZN8SdVolume4initEP7Sd2Cardh+0xde>
    41c4:	b7 c0       	rjmp	.+366    	; 0x4334 <_ZN8SdVolume4initEP7Sd2Cardh+0x24c>
    41c6:	6d 85       	ldd	r22, Y+13	; 0x0d
    41c8:	e6 2f       	mov	r30, r22
    41ca:	c9 01       	movw	r24, r18
    41cc:	06 2e       	mov	r0, r22
    41ce:	02 c0       	rjmp	.+4      	; 0x41d4 <_ZN8SdVolume4initEP7Sd2Cardh+0xec>
    41d0:	88 0f       	add	r24, r24
    41d2:	99 1f       	adc	r25, r25
    41d4:	0a 94       	dec	r0
    41d6:	e2 f7       	brpl	.-8      	; 0x41d0 <_ZN8SdVolume4initEP7Sd2Cardh+0xe8>
    41d8:	48 17       	cp	r20, r24
    41da:	59 07       	cpc	r21, r25
    41dc:	71 f7       	brne	.-36     	; 0x41ba <_ZN8SdVolume4initEP7Sd2Cardh+0xd2>
    41de:	20 91 07 03 	lds	r18, 0x0307
    41e2:	30 91 08 03 	lds	r19, 0x0308
    41e6:	21 15       	cp	r18, r1
    41e8:	31 05       	cpc	r19, r1
    41ea:	19 f0       	breq	.+6      	; 0x41f2 <_ZN8SdVolume4initEP7Sd2Cardh+0x10a>
    41ec:	40 e0       	ldi	r20, 0x00	; 0
    41ee:	50 e0       	ldi	r21, 0x00	; 0
    41f0:	08 c0       	rjmp	.+16     	; 0x4202 <_ZN8SdVolume4initEP7Sd2Cardh+0x11a>
    41f2:	20 91 15 03 	lds	r18, 0x0315
    41f6:	30 91 16 03 	lds	r19, 0x0316
    41fa:	40 91 17 03 	lds	r20, 0x0317
    41fe:	50 91 18 03 	lds	r21, 0x0318
    4202:	2d 83       	std	Y+5, r18	; 0x05
    4204:	3e 83       	std	Y+6, r19	; 0x06
    4206:	4f 83       	std	Y+7, r20	; 0x07
    4208:	58 87       	std	Y+8, r21	; 0x08
    420a:	80 91 ff 02 	lds	r24, 0x02FF
    420e:	90 91 00 03 	lds	r25, 0x0300
    4212:	46 01       	movw	r8, r12
    4214:	57 01       	movw	r10, r14
    4216:	88 0e       	add	r8, r24
    4218:	99 1e       	adc	r9, r25
    421a:	a1 1c       	adc	r10, r1
    421c:	b1 1c       	adc	r11, r1
    421e:	8b 8a       	std	Y+19, r8	; 0x13
    4220:	9c 8a       	std	Y+20, r9	; 0x14
    4222:	ad 8a       	std	Y+21, r10	; 0x15
    4224:	be 8a       	std	Y+22, r11	; 0x16
    4226:	00 91 02 03 	lds	r16, 0x0302
    422a:	10 91 03 03 	lds	r17, 0x0303
    422e:	19 8f       	std	Y+25, r17	; 0x19
    4230:	08 8f       	std	Y+24, r16	; 0x18
    4232:	a0 91 01 03 	lds	r26, 0x0301
    4236:	b0 e0       	ldi	r27, 0x00	; 0
    4238:	0e 94 e3 24 	call	0x49c6	; 0x49c6 <__muluhisi3>
    423c:	86 0e       	add	r8, r22
    423e:	97 1e       	adc	r9, r23
    4240:	a8 1e       	adc	r10, r24
    4242:	b9 1e       	adc	r11, r25
    4244:	8a 8e       	std	Y+26, r8	; 0x1a
    4246:	9b 8e       	std	Y+27, r9	; 0x1b
    4248:	ac 8e       	std	Y+28, r10	; 0x1c
    424a:	bd 8e       	std	Y+29, r11	; 0x1d
    424c:	00 0f       	add	r16, r16
    424e:	11 1f       	adc	r17, r17
    4250:	02 95       	swap	r16
    4252:	12 95       	swap	r17
    4254:	10 7f       	andi	r17, 0xF0	; 240
    4256:	10 27       	eor	r17, r16
    4258:	00 7f       	andi	r16, 0xF0	; 240
    425a:	10 27       	eor	r17, r16
    425c:	01 50       	subi	r16, 0x01	; 1
    425e:	1e 4f       	sbci	r17, 0xFE	; 254
    4260:	c8 01       	movw	r24, r16
    4262:	89 2f       	mov	r24, r25
    4264:	99 27       	eor	r25, r25
    4266:	86 95       	lsr	r24
    4268:	88 0e       	add	r8, r24
    426a:	99 1e       	adc	r9, r25
    426c:	a1 1c       	adc	r10, r1
    426e:	b1 1c       	adc	r11, r1
    4270:	8e 86       	std	Y+14, r8	; 0x0e
    4272:	9f 86       	std	Y+15, r9	; 0x0f
    4274:	a8 8a       	std	Y+16, r10	; 0x10
    4276:	b9 8a       	std	Y+17, r11	; 0x11
    4278:	80 91 04 03 	lds	r24, 0x0304
    427c:	90 91 05 03 	lds	r25, 0x0305
    4280:	00 97       	sbiw	r24, 0x00	; 0
    4282:	19 f0       	breq	.+6      	; 0x428a <_ZN8SdVolume4initEP7Sd2Cardh+0x1a2>
    4284:	a0 e0       	ldi	r26, 0x00	; 0
    4286:	b0 e0       	ldi	r27, 0x00	; 0
    4288:	08 c0       	rjmp	.+16     	; 0x429a <_ZN8SdVolume4initEP7Sd2Cardh+0x1b2>
    428a:	80 91 11 03 	lds	r24, 0x0311
    428e:	90 91 12 03 	lds	r25, 0x0312
    4292:	a0 91 13 03 	lds	r26, 0x0313
    4296:	b0 91 14 03 	lds	r27, 0x0314
    429a:	c8 18       	sub	r12, r8
    429c:	d9 08       	sbc	r13, r9
    429e:	ea 08       	sbc	r14, r10
    42a0:	fb 08       	sbc	r15, r11
    42a2:	c8 0e       	add	r12, r24
    42a4:	d9 1e       	adc	r13, r25
    42a6:	ea 1e       	adc	r14, r26
    42a8:	fb 1e       	adc	r15, r27
    42aa:	04 c0       	rjmp	.+8      	; 0x42b4 <_ZN8SdVolume4initEP7Sd2Cardh+0x1cc>
    42ac:	f6 94       	lsr	r15
    42ae:	e7 94       	ror	r14
    42b0:	d7 94       	ror	r13
    42b2:	c7 94       	ror	r12
    42b4:	ea 95       	dec	r30
    42b6:	d2 f7       	brpl	.-12     	; 0x42ac <_ZN8SdVolume4initEP7Sd2Cardh+0x1c4>
    42b8:	c9 86       	std	Y+9, r12	; 0x09
    42ba:	da 86       	std	Y+10, r13	; 0x0a
    42bc:	eb 86       	std	Y+11, r14	; 0x0b
    42be:	fc 86       	std	Y+12, r15	; 0x0c
    42c0:	85 ef       	ldi	r24, 0xF5	; 245
    42c2:	c8 16       	cp	r12, r24
    42c4:	8f e0       	ldi	r24, 0x0F	; 15
    42c6:	d8 06       	cpc	r13, r24
    42c8:	e1 04       	cpc	r14, r1
    42ca:	f1 04       	cpc	r15, r1
    42cc:	20 f4       	brcc	.+8      	; 0x42d6 <_ZN8SdVolume4initEP7Sd2Cardh+0x1ee>
    42ce:	8c e0       	ldi	r24, 0x0C	; 12
    42d0:	8f 8b       	std	Y+23, r24	; 0x17
    42d2:	81 e0       	ldi	r24, 0x01	; 1
    42d4:	30 c0       	rjmp	.+96     	; 0x4336 <_ZN8SdVolume4initEP7Sd2Cardh+0x24e>
    42d6:	25 ef       	ldi	r18, 0xF5	; 245
    42d8:	c2 16       	cp	r12, r18
    42da:	2f ef       	ldi	r18, 0xFF	; 255
    42dc:	d2 06       	cpc	r13, r18
    42de:	e1 04       	cpc	r14, r1
    42e0:	f1 04       	cpc	r15, r1
    42e2:	20 f4       	brcc	.+8      	; 0x42ec <_ZN8SdVolume4initEP7Sd2Cardh+0x204>
    42e4:	80 e1       	ldi	r24, 0x10	; 16
    42e6:	8f 8b       	std	Y+23, r24	; 0x17
    42e8:	81 e0       	ldi	r24, 0x01	; 1
    42ea:	25 c0       	rjmp	.+74     	; 0x4336 <_ZN8SdVolume4initEP7Sd2Cardh+0x24e>
    42ec:	80 91 1d 03 	lds	r24, 0x031D
    42f0:	90 91 1e 03 	lds	r25, 0x031E
    42f4:	a0 91 1f 03 	lds	r26, 0x031F
    42f8:	b0 91 20 03 	lds	r27, 0x0320
    42fc:	8a 8f       	std	Y+26, r24	; 0x1a
    42fe:	9b 8f       	std	Y+27, r25	; 0x1b
    4300:	ac 8f       	std	Y+28, r26	; 0x1c
    4302:	bd 8f       	std	Y+29, r27	; 0x1d
    4304:	80 e2       	ldi	r24, 0x20	; 32
    4306:	8f 8b       	std	Y+23, r24	; 0x17
    4308:	81 e0       	ldi	r24, 0x01	; 1
    430a:	15 c0       	rjmp	.+42     	; 0x4336 <_ZN8SdVolume4initEP7Sd2Cardh+0x24e>
    430c:	80 e0       	ldi	r24, 0x00	; 0
    430e:	13 c0       	rjmp	.+38     	; 0x4336 <_ZN8SdVolume4initEP7Sd2Cardh+0x24e>
    4310:	80 e0       	ldi	r24, 0x00	; 0
    4312:	11 c0       	rjmp	.+34     	; 0x4336 <_ZN8SdVolume4initEP7Sd2Cardh+0x24e>
    4314:	80 e0       	ldi	r24, 0x00	; 0
    4316:	0f c0       	rjmp	.+30     	; 0x4336 <_ZN8SdVolume4initEP7Sd2Cardh+0x24e>
    4318:	80 e0       	ldi	r24, 0x00	; 0
    431a:	0d c0       	rjmp	.+26     	; 0x4336 <_ZN8SdVolume4initEP7Sd2Cardh+0x24e>
    431c:	80 e0       	ldi	r24, 0x00	; 0
    431e:	0b c0       	rjmp	.+22     	; 0x4336 <_ZN8SdVolume4initEP7Sd2Cardh+0x24e>
    4320:	80 e0       	ldi	r24, 0x00	; 0
    4322:	09 c0       	rjmp	.+18     	; 0x4336 <_ZN8SdVolume4initEP7Sd2Cardh+0x24e>
    4324:	80 e0       	ldi	r24, 0x00	; 0
    4326:	07 c0       	rjmp	.+14     	; 0x4336 <_ZN8SdVolume4initEP7Sd2Cardh+0x24e>
    4328:	80 e0       	ldi	r24, 0x00	; 0
    432a:	05 c0       	rjmp	.+10     	; 0x4336 <_ZN8SdVolume4initEP7Sd2Cardh+0x24e>
    432c:	80 e0       	ldi	r24, 0x00	; 0
    432e:	03 c0       	rjmp	.+6      	; 0x4336 <_ZN8SdVolume4initEP7Sd2Cardh+0x24e>
    4330:	80 e0       	ldi	r24, 0x00	; 0
    4332:	01 c0       	rjmp	.+2      	; 0x4336 <_ZN8SdVolume4initEP7Sd2Cardh+0x24e>
    4334:	80 e0       	ldi	r24, 0x00	; 0
    4336:	df 91       	pop	r29
    4338:	cf 91       	pop	r28
    433a:	1f 91       	pop	r17
    433c:	0f 91       	pop	r16
    433e:	ff 90       	pop	r15
    4340:	ef 90       	pop	r14
    4342:	df 90       	pop	r13
    4344:	cf 90       	pop	r12
    4346:	bf 90       	pop	r11
    4348:	af 90       	pop	r10
    434a:	9f 90       	pop	r9
    434c:	8f 90       	pop	r8
    434e:	08 95       	ret

00004350 <_ZN8SPIClass5beginEv>:
    4350:	cf 93       	push	r28
    4352:	cf b7       	in	r28, 0x3f	; 63
    4354:	f8 94       	cli
    4356:	80 91 f4 04 	lds	r24, 0x04F4
    435a:	81 11       	cpse	r24, r1
    435c:	27 c0       	rjmp	.+78     	; 0x43ac <_ZN8SPIClass5beginEv+0x5c>
    435e:	eb e9       	ldi	r30, 0x9B	; 155
    4360:	f0 e0       	ldi	r31, 0x00	; 0
    4362:	94 91       	lpm	r25, Z
    4364:	e7 e8       	ldi	r30, 0x87	; 135
    4366:	f0 e0       	ldi	r31, 0x00	; 0
    4368:	84 91       	lpm	r24, Z
    436a:	e9 2f       	mov	r30, r25
    436c:	f0 e0       	ldi	r31, 0x00	; 0
    436e:	ee 0f       	add	r30, r30
    4370:	ff 1f       	adc	r31, r31
    4372:	e7 54       	subi	r30, 0x47	; 71
    4374:	ff 4f       	sbci	r31, 0xFF	; 255
    4376:	a5 91       	lpm	r26, Z+
    4378:	b4 91       	lpm	r27, Z
    437a:	ec 91       	ld	r30, X
    437c:	8e 23       	and	r24, r30
    437e:	21 f4       	brne	.+8      	; 0x4388 <_ZN8SPIClass5beginEv+0x38>
    4380:	61 e0       	ldi	r22, 0x01	; 1
    4382:	8a e0       	ldi	r24, 0x0A	; 10
    4384:	0e 94 5b 08 	call	0x10b6	; 0x10b6 <digitalWrite>
    4388:	61 e0       	ldi	r22, 0x01	; 1
    438a:	8a e0       	ldi	r24, 0x0A	; 10
    438c:	0e 94 1d 08 	call	0x103a	; 0x103a <pinMode>
    4390:	8c b5       	in	r24, 0x2c	; 44
    4392:	80 61       	ori	r24, 0x10	; 16
    4394:	8c bd       	out	0x2c, r24	; 44
    4396:	8c b5       	in	r24, 0x2c	; 44
    4398:	80 64       	ori	r24, 0x40	; 64
    439a:	8c bd       	out	0x2c, r24	; 44
    439c:	61 e0       	ldi	r22, 0x01	; 1
    439e:	8d e0       	ldi	r24, 0x0D	; 13
    43a0:	0e 94 1d 08 	call	0x103a	; 0x103a <pinMode>
    43a4:	61 e0       	ldi	r22, 0x01	; 1
    43a6:	8b e0       	ldi	r24, 0x0B	; 11
    43a8:	0e 94 1d 08 	call	0x103a	; 0x103a <pinMode>
    43ac:	80 91 f4 04 	lds	r24, 0x04F4
    43b0:	8f 5f       	subi	r24, 0xFF	; 255
    43b2:	80 93 f4 04 	sts	0x04F4, r24
    43b6:	cf bf       	out	0x3f, r28	; 63
    43b8:	cf 91       	pop	r28
    43ba:	08 95       	ret

000043bc <_ZN8SPIClass14usingInterruptEh>:
    43bc:	9f b7       	in	r25, 0x3f	; 63
    43be:	f8 94       	cli
    43c0:	88 23       	and	r24, r24
    43c2:	19 f0       	breq	.+6      	; 0x43ca <_ZN8SPIClass14usingInterruptEh+0xe>
    43c4:	81 30       	cpi	r24, 0x01	; 1
    43c6:	41 f0       	breq	.+16     	; 0x43d8 <_ZN8SPIClass14usingInterruptEh+0x1c>
    43c8:	02 c0       	rjmp	.+4      	; 0x43ce <_ZN8SPIClass14usingInterruptEh+0x12>
    43ca:	81 e0       	ldi	r24, 0x01	; 1
    43cc:	06 c0       	rjmp	.+12     	; 0x43da <_ZN8SPIClass14usingInterruptEh+0x1e>
    43ce:	82 e0       	ldi	r24, 0x02	; 2
    43d0:	80 93 f3 04 	sts	0x04F3, r24
    43d4:	80 e0       	ldi	r24, 0x00	; 0
    43d6:	01 c0       	rjmp	.+2      	; 0x43da <_ZN8SPIClass14usingInterruptEh+0x1e>
    43d8:	82 e0       	ldi	r24, 0x02	; 2
    43da:	20 91 f2 04 	lds	r18, 0x04F2
    43de:	82 2b       	or	r24, r18
    43e0:	80 93 f2 04 	sts	0x04F2, r24
    43e4:	80 91 f3 04 	lds	r24, 0x04F3
    43e8:	81 11       	cpse	r24, r1
    43ea:	03 c0       	rjmp	.+6      	; 0x43f2 <_ZN8SPIClass14usingInterruptEh+0x36>
    43ec:	81 e0       	ldi	r24, 0x01	; 1
    43ee:	80 93 f3 04 	sts	0x04F3, r24
    43f2:	9f bf       	out	0x3f, r25	; 63
    43f4:	08 95       	ret

000043f6 <_Z17Encoder_S_initialj>:
    43f6:	0f 93       	push	r16
    43f8:	1f 93       	push	r17
    43fa:	cf 93       	push	r28
    43fc:	df 93       	push	r29
    43fe:	8c 01       	movw	r16, r24
    4400:	60 e0       	ldi	r22, 0x00	; 0
    4402:	8e e0       	ldi	r24, 0x0E	; 14
    4404:	0e 94 1d 08 	call	0x103a	; 0x103a <pinMode>
    4408:	60 e0       	ldi	r22, 0x00	; 0
    440a:	8f e0       	ldi	r24, 0x0F	; 15
    440c:	0e 94 1d 08 	call	0x103a	; 0x103a <pinMode>
    4410:	61 e0       	ldi	r22, 0x01	; 1
    4412:	8d e0       	ldi	r24, 0x0D	; 13
    4414:	0e 94 1d 08 	call	0x103a	; 0x103a <pinMode>
    4418:	e8 e6       	ldi	r30, 0x68	; 104
    441a:	f0 e0       	ldi	r31, 0x00	; 0
    441c:	80 81       	ld	r24, Z
    441e:	82 60       	ori	r24, 0x02	; 2
    4420:	80 83       	st	Z, r24
    4422:	ec e6       	ldi	r30, 0x6C	; 108
    4424:	f0 e0       	ldi	r31, 0x00	; 0
    4426:	80 81       	ld	r24, Z
    4428:	83 60       	ori	r24, 0x03	; 3
    442a:	80 83       	st	Z, r24
    442c:	f8 94       	cli
    442e:	10 92 80 00 	sts	0x0080, r1
    4432:	c1 e8       	ldi	r28, 0x81	; 129
    4434:	d0 e0       	ldi	r29, 0x00	; 0
    4436:	18 82       	st	Y, r1
    4438:	98 01       	movw	r18, r16
    443a:	40 e0       	ldi	r20, 0x00	; 0
    443c:	50 e0       	ldi	r21, 0x00	; 0
    443e:	64 e2       	ldi	r22, 0x24	; 36
    4440:	74 ef       	ldi	r23, 0xF4	; 244
    4442:	80 e0       	ldi	r24, 0x00	; 0
    4444:	90 e0       	ldi	r25, 0x00	; 0
    4446:	0e 94 c4 24 	call	0x4988	; 0x4988 <__divmodsi4>
    444a:	31 95       	neg	r19
    444c:	21 95       	neg	r18
    444e:	31 09       	sbc	r19, r1
    4450:	e6 ef       	ldi	r30, 0xF6	; 246
    4452:	f4 e0       	ldi	r31, 0x04	; 4
    4454:	31 83       	std	Z+1, r19	; 0x01
    4456:	20 83       	st	Z, r18
    4458:	80 81       	ld	r24, Z
    445a:	91 81       	ldd	r25, Z+1	; 0x01
    445c:	90 93 85 00 	sts	0x0085, r25
    4460:	80 93 84 00 	sts	0x0084, r24
    4464:	88 81       	ld	r24, Y
    4466:	84 60       	ori	r24, 0x04	; 4
    4468:	88 83       	st	Y, r24
    446a:	ef e6       	ldi	r30, 0x6F	; 111
    446c:	f0 e0       	ldi	r31, 0x00	; 0
    446e:	80 81       	ld	r24, Z
    4470:	81 60       	ori	r24, 0x01	; 1
    4472:	80 83       	st	Z, r24
    4474:	78 94       	sei
    4476:	8f ef       	ldi	r24, 0xFF	; 255
    4478:	80 93 ff 04 	sts	0x04FF, r24
    447c:	81 e0       	ldi	r24, 0x01	; 1
    447e:	80 93 00 05 	sts	0x0500, r24
    4482:	80 93 f5 04 	sts	0x04F5, r24
    4486:	80 93 01 05 	sts	0x0501, r24
    448a:	df 91       	pop	r29
    448c:	cf 91       	pop	r28
    448e:	1f 91       	pop	r17
    4490:	0f 91       	pop	r16
    4492:	08 95       	ret

00004494 <_Z17Encoder_S_get_numv>:
    4494:	10 92 01 05 	sts	0x0501, r1
    4498:	ef ef       	ldi	r30, 0xFF	; 255
    449a:	f4 e0       	ldi	r31, 0x04	; 4
    449c:	80 81       	ld	r24, Z
    449e:	80 93 00 05 	sts	0x0500, r24
    44a2:	80 81       	ld	r24, Z
    44a4:	08 95       	ret

000044a6 <_Z13Encoder_S_getv>:
    44a6:	80 91 01 05 	lds	r24, 0x0501
    44aa:	08 95       	ret

000044ac <__vector_13>:
    44ac:	1f 92       	push	r1
    44ae:	0f 92       	push	r0
    44b0:	0f b6       	in	r0, 0x3f	; 63
    44b2:	0f 92       	push	r0
    44b4:	11 24       	eor	r1, r1
    44b6:	2f 93       	push	r18
    44b8:	8f 93       	push	r24
    44ba:	9f 93       	push	r25
    44bc:	ef 93       	push	r30
    44be:	ff 93       	push	r31
    44c0:	80 91 f6 04 	lds	r24, 0x04F6
    44c4:	90 91 f7 04 	lds	r25, 0x04F7
    44c8:	90 93 85 00 	sts	0x0085, r25
    44cc:	80 93 84 00 	sts	0x0084, r24
    44d0:	80 91 fa 04 	lds	r24, 0x04FA
    44d4:	90 91 fb 04 	lds	r25, 0x04FB
    44d8:	80 35       	cpi	r24, 0x50	; 80
    44da:	93 4c       	sbci	r25, 0xC3	; 195
    44dc:	38 f4       	brcc	.+14     	; 0x44ec <__vector_13+0x40>
    44de:	ea ef       	ldi	r30, 0xFA	; 250
    44e0:	f4 e0       	ldi	r31, 0x04	; 4
    44e2:	80 81       	ld	r24, Z
    44e4:	91 81       	ldd	r25, Z+1	; 0x01
    44e6:	01 96       	adiw	r24, 0x01	; 1
    44e8:	91 83       	std	Z+1, r25	; 0x01
    44ea:	80 83       	st	Z, r24
    44ec:	80 91 fc 04 	lds	r24, 0x04FC
    44f0:	81 30       	cpi	r24, 0x01	; 1
    44f2:	09 f0       	breq	.+2      	; 0x44f6 <__vector_13+0x4a>
    44f4:	a1 c0       	rjmp	.+322    	; 0x4638 <__vector_13+0x18c>
    44f6:	80 91 f8 04 	lds	r24, 0x04F8
    44fa:	90 91 f9 04 	lds	r25, 0x04F9
    44fe:	8a 3f       	cpi	r24, 0xFA	; 250
    4500:	91 05       	cpc	r25, r1
    4502:	08 f4       	brcc	.+2      	; 0x4506 <__vector_13+0x5a>
    4504:	66 c0       	rjmp	.+204    	; 0x45d2 <__vector_13+0x126>
    4506:	10 92 fc 04 	sts	0x04FC, r1
    450a:	80 91 0b 05 	lds	r24, 0x050B
    450e:	82 30       	cpi	r24, 0x02	; 2
    4510:	28 f0       	brcs	.+10     	; 0x451c <__vector_13+0x70>
    4512:	80 91 0b 05 	lds	r24, 0x050B
    4516:	88 30       	cpi	r24, 0x08	; 8
    4518:	08 f4       	brcc	.+2      	; 0x451c <__vector_13+0x70>
    451a:	69 c0       	rjmp	.+210    	; 0x45ee <__vector_13+0x142>
    451c:	80 91 0a 05 	lds	r24, 0x050A
    4520:	82 30       	cpi	r24, 0x02	; 2
    4522:	08 f4       	brcc	.+2      	; 0x4526 <__vector_13+0x7a>
    4524:	5e c0       	rjmp	.+188    	; 0x45e2 <__vector_13+0x136>
    4526:	80 91 0a 05 	lds	r24, 0x050A
    452a:	88 30       	cpi	r24, 0x08	; 8
    452c:	08 f4       	brcc	.+2      	; 0x4530 <__vector_13+0x84>
    452e:	5f c0       	rjmp	.+190    	; 0x45ee <__vector_13+0x142>
    4530:	58 c0       	rjmp	.+176    	; 0x45e2 <__vector_13+0x136>
    4532:	80 91 05 05 	lds	r24, 0x0505
    4536:	81 30       	cpi	r24, 0x01	; 1
    4538:	09 f0       	breq	.+2      	; 0x453c <__vector_13+0x90>
    453a:	64 c0       	rjmp	.+200    	; 0x4604 <__vector_13+0x158>
    453c:	5d c0       	rjmp	.+186    	; 0x45f8 <__vector_13+0x14c>
    453e:	80 91 05 05 	lds	r24, 0x0505
    4542:	88 23       	and	r24, r24
    4544:	09 f4       	brne	.+2      	; 0x4548 <__vector_13+0x9c>
    4546:	64 c0       	rjmp	.+200    	; 0x4610 <__vector_13+0x164>
    4548:	69 c0       	rjmp	.+210    	; 0x461c <__vector_13+0x170>
    454a:	80 91 05 05 	lds	r24, 0x0505
    454e:	81 30       	cpi	r24, 0x01	; 1
    4550:	09 f0       	breq	.+2      	; 0x4554 <__vector_13+0xa8>
    4552:	6e c0       	rjmp	.+220    	; 0x4630 <__vector_13+0x184>
    4554:	69 c0       	rjmp	.+210    	; 0x4628 <__vector_13+0x17c>
    4556:	86 e0       	ldi	r24, 0x06	; 6
    4558:	80 93 ff 04 	sts	0x04FF, r24
    455c:	0b c0       	rjmp	.+22     	; 0x4574 <__vector_13+0xc8>
    455e:	80 91 0a 05 	lds	r24, 0x050A
    4562:	82 30       	cpi	r24, 0x02	; 2
    4564:	20 f4       	brcc	.+8      	; 0x456e <__vector_13+0xc2>
    4566:	81 e0       	ldi	r24, 0x01	; 1
    4568:	80 93 ff 04 	sts	0x04FF, r24
    456c:	03 c0       	rjmp	.+6      	; 0x4574 <__vector_13+0xc8>
    456e:	8f ef       	ldi	r24, 0xFF	; 255
    4570:	80 93 ff 04 	sts	0x04FF, r24
    4574:	80 91 ff 04 	lds	r24, 0x04FF
    4578:	18 16       	cp	r1, r24
    457a:	24 f4       	brge	.+8      	; 0x4584 <__vector_13+0xd8>
    457c:	80 91 ff 04 	lds	r24, 0x04FF
    4580:	87 30       	cpi	r24, 0x07	; 7
    4582:	1c f0       	brlt	.+6      	; 0x458a <__vector_13+0xde>
    4584:	8f ef       	ldi	r24, 0xFF	; 255
    4586:	80 93 ff 04 	sts	0x04FF, r24
    458a:	80 91 f5 04 	lds	r24, 0x04F5
    458e:	81 30       	cpi	r24, 0x01	; 1
    4590:	71 f4       	brne	.+28     	; 0x45ae <__vector_13+0x102>
    4592:	80 91 ff 04 	lds	r24, 0x04FF
    4596:	81 30       	cpi	r24, 0x01	; 1
    4598:	21 f0       	breq	.+8      	; 0x45a2 <__vector_13+0xf6>
    459a:	80 91 ff 04 	lds	r24, 0x04FF
    459e:	86 30       	cpi	r24, 0x06	; 6
    45a0:	19 f4       	brne	.+6      	; 0x45a8 <__vector_13+0xfc>
    45a2:	10 92 f5 04 	sts	0x04F5, r1
    45a6:	03 c0       	rjmp	.+6      	; 0x45ae <__vector_13+0x102>
    45a8:	8f ef       	ldi	r24, 0xFF	; 255
    45aa:	80 93 ff 04 	sts	0x04FF, r24
    45ae:	10 92 0a 05 	sts	0x050A, r1
    45b2:	10 92 0b 05 	sts	0x050B, r1
    45b6:	90 91 00 05 	lds	r25, 0x0500
    45ba:	80 91 ff 04 	lds	r24, 0x04FF
    45be:	98 17       	cp	r25, r24
    45c0:	19 f0       	breq	.+6      	; 0x45c8 <__vector_13+0x11c>
    45c2:	81 e0       	ldi	r24, 0x01	; 1
    45c4:	80 93 01 05 	sts	0x0501, r24
    45c8:	80 91 06 05 	lds	r24, 0x0506
    45cc:	80 93 05 05 	sts	0x0505, r24
    45d0:	33 c0       	rjmp	.+102    	; 0x4638 <__vector_13+0x18c>
    45d2:	e8 ef       	ldi	r30, 0xF8	; 248
    45d4:	f4 e0       	ldi	r31, 0x04	; 4
    45d6:	80 81       	ld	r24, Z
    45d8:	91 81       	ldd	r25, Z+1	; 0x01
    45da:	01 96       	adiw	r24, 0x01	; 1
    45dc:	91 83       	std	Z+1, r25	; 0x01
    45de:	80 83       	st	Z, r24
    45e0:	2b c0       	rjmp	.+86     	; 0x4638 <__vector_13+0x18c>
    45e2:	80 91 0b 05 	lds	r24, 0x050B
    45e6:	82 30       	cpi	r24, 0x02	; 2
    45e8:	08 f0       	brcs	.+2      	; 0x45ec <__vector_13+0x140>
    45ea:	b9 cf       	rjmp	.-142    	; 0x455e <__vector_13+0xb2>
    45ec:	b4 cf       	rjmp	.-152    	; 0x4556 <__vector_13+0xaa>
    45ee:	80 91 06 05 	lds	r24, 0x0506
    45f2:	81 30       	cpi	r24, 0x01	; 1
    45f4:	39 f4       	brne	.+14     	; 0x4604 <__vector_13+0x158>
    45f6:	9d cf       	rjmp	.-198    	; 0x4532 <__vector_13+0x86>
    45f8:	ef ef       	ldi	r30, 0xFF	; 255
    45fa:	f4 e0       	ldi	r31, 0x04	; 4
    45fc:	80 81       	ld	r24, Z
    45fe:	8f 5f       	subi	r24, 0xFF	; 255
    4600:	80 83       	st	Z, r24
    4602:	b8 cf       	rjmp	.-144    	; 0x4574 <__vector_13+0xc8>
    4604:	80 91 06 05 	lds	r24, 0x0506
    4608:	88 23       	and	r24, r24
    460a:	09 f4       	brne	.+2      	; 0x460e <__vector_13+0x162>
    460c:	98 cf       	rjmp	.-208    	; 0x453e <__vector_13+0x92>
    460e:	06 c0       	rjmp	.+12     	; 0x461c <__vector_13+0x170>
    4610:	ef ef       	ldi	r30, 0xFF	; 255
    4612:	f4 e0       	ldi	r31, 0x04	; 4
    4614:	80 81       	ld	r24, Z
    4616:	81 50       	subi	r24, 0x01	; 1
    4618:	80 83       	st	Z, r24
    461a:	ac cf       	rjmp	.-168    	; 0x4574 <__vector_13+0xc8>
    461c:	80 91 06 05 	lds	r24, 0x0506
    4620:	88 23       	and	r24, r24
    4622:	09 f4       	brne	.+2      	; 0x4626 <__vector_13+0x17a>
    4624:	92 cf       	rjmp	.-220    	; 0x454a <__vector_13+0x9e>
    4626:	04 c0       	rjmp	.+8      	; 0x4630 <__vector_13+0x184>
    4628:	85 e0       	ldi	r24, 0x05	; 5
    462a:	80 93 ff 04 	sts	0x04FF, r24
    462e:	a2 cf       	rjmp	.-188    	; 0x4574 <__vector_13+0xc8>
    4630:	82 e0       	ldi	r24, 0x02	; 2
    4632:	80 93 ff 04 	sts	0x04FF, r24
    4636:	9e cf       	rjmp	.-196    	; 0x4574 <__vector_13+0xc8>
    4638:	ff 91       	pop	r31
    463a:	ef 91       	pop	r30
    463c:	9f 91       	pop	r25
    463e:	8f 91       	pop	r24
    4640:	2f 91       	pop	r18
    4642:	0f 90       	pop	r0
    4644:	0f be       	out	0x3f, r0	; 63
    4646:	0f 90       	pop	r0
    4648:	1f 90       	pop	r1
    464a:	18 95       	reti

0000464c <__vector_4>:
    464c:	1f 92       	push	r1
    464e:	0f 92       	push	r0
    4650:	0f b6       	in	r0, 0x3f	; 63
    4652:	0f 92       	push	r0
    4654:	11 24       	eor	r1, r1
    4656:	2f 93       	push	r18
    4658:	3f 93       	push	r19
    465a:	4f 93       	push	r20
    465c:	5f 93       	push	r21
    465e:	6f 93       	push	r22
    4660:	7f 93       	push	r23
    4662:	8f 93       	push	r24
    4664:	9f 93       	push	r25
    4666:	af 93       	push	r26
    4668:	bf 93       	push	r27
    466a:	ef 93       	push	r30
    466c:	ff 93       	push	r31
    466e:	8e e0       	ldi	r24, 0x0E	; 14
    4670:	0e 94 8c 08 	call	0x1118	; 0x1118 <digitalRead>
    4674:	01 97       	sbiw	r24, 0x01	; 1
    4676:	21 f4       	brne	.+8      	; 0x4680 <__vector_4+0x34>
    4678:	81 e0       	ldi	r24, 0x01	; 1
    467a:	80 93 fd 04 	sts	0x04FD, r24
    467e:	02 c0       	rjmp	.+4      	; 0x4684 <__vector_4+0x38>
    4680:	10 92 fd 04 	sts	0x04FD, r1
    4684:	8f e0       	ldi	r24, 0x0F	; 15
    4686:	0e 94 8c 08 	call	0x1118	; 0x1118 <digitalRead>
    468a:	01 97       	sbiw	r24, 0x01	; 1
    468c:	21 f4       	brne	.+8      	; 0x4696 <__vector_4+0x4a>
    468e:	81 e0       	ldi	r24, 0x01	; 1
    4690:	80 93 fe 04 	sts	0x04FE, r24
    4694:	02 c0       	rjmp	.+4      	; 0x469a <__vector_4+0x4e>
    4696:	10 92 fe 04 	sts	0x04FE, r1
    469a:	80 91 fd 04 	lds	r24, 0x04FD
    469e:	81 30       	cpi	r24, 0x01	; 1
    46a0:	b9 f5       	brne	.+110    	; 0x4710 <__vector_4+0xc4>
    46a2:	80 91 fe 04 	lds	r24, 0x04FE
    46a6:	81 30       	cpi	r24, 0x01	; 1
    46a8:	99 f5       	brne	.+102    	; 0x4710 <__vector_4+0xc4>
    46aa:	2e c0       	rjmp	.+92     	; 0x4708 <__vector_4+0xbc>
    46ac:	80 91 fe 04 	lds	r24, 0x04FE
    46b0:	81 30       	cpi	r24, 0x01	; 1
    46b2:	91 f5       	brne	.+100    	; 0x4718 <__vector_4+0xcc>
    46b4:	36 c0       	rjmp	.+108    	; 0x4722 <__vector_4+0xd6>
    46b6:	80 91 f8 04 	lds	r24, 0x04F8
    46ba:	90 91 f9 04 	lds	r25, 0x04F9
    46be:	86 39       	cpi	r24, 0x96	; 150
    46c0:	91 05       	cpc	r25, r1
    46c2:	20 f4       	brcc	.+8      	; 0x46cc <__vector_4+0x80>
    46c4:	80 91 09 05 	lds	r24, 0x0509
    46c8:	81 30       	cpi	r24, 0x01	; 1
    46ca:	a1 f1       	breq	.+104    	; 0x4734 <__vector_4+0xe8>
    46cc:	10 92 09 05 	sts	0x0509, r1
    46d0:	13 c0       	rjmp	.+38     	; 0x46f8 <__vector_4+0xac>
    46d2:	80 91 fe 04 	lds	r24, 0x04FE
    46d6:	88 23       	and	r24, r24
    46d8:	09 f4       	brne	.+2      	; 0x46dc <__vector_4+0x90>
    46da:	3f c0       	rjmp	.+126    	; 0x475a <__vector_4+0x10e>
    46dc:	0d c0       	rjmp	.+26     	; 0x46f8 <__vector_4+0xac>
    46de:	80 91 f8 04 	lds	r24, 0x04F8
    46e2:	90 91 f9 04 	lds	r25, 0x04F9
    46e6:	86 39       	cpi	r24, 0x96	; 150
    46e8:	91 05       	cpc	r25, r1
    46ea:	20 f4       	brcc	.+8      	; 0x46f4 <__vector_4+0xa8>
    46ec:	80 91 09 05 	lds	r24, 0x0509
    46f0:	81 30       	cpi	r24, 0x01	; 1
    46f2:	e9 f1       	breq	.+122    	; 0x476e <__vector_4+0x122>
    46f4:	10 92 09 05 	sts	0x0509, r1
    46f8:	81 e0       	ldi	r24, 0x01	; 1
    46fa:	80 93 fc 04 	sts	0x04FC, r24
    46fe:	10 92 f9 04 	sts	0x04F9, r1
    4702:	10 92 f8 04 	sts	0x04F8, r1
    4706:	45 c0       	rjmp	.+138    	; 0x4792 <__vector_4+0x146>
    4708:	81 e0       	ldi	r24, 0x01	; 1
    470a:	80 93 09 05 	sts	0x0509, r24
    470e:	f4 cf       	rjmp	.-24     	; 0x46f8 <__vector_4+0xac>
    4710:	80 91 fd 04 	lds	r24, 0x04FD
    4714:	88 23       	and	r24, r24
    4716:	51 f2       	breq	.-108    	; 0x46ac <__vector_4+0x60>
    4718:	80 91 fd 04 	lds	r24, 0x04FD
    471c:	81 30       	cpi	r24, 0x01	; 1
    471e:	61 f7       	brne	.-40     	; 0x46f8 <__vector_4+0xac>
    4720:	d8 cf       	rjmp	.-80     	; 0x46d2 <__vector_4+0x86>
    4722:	10 92 fc 04 	sts	0x04FC, r1
    4726:	80 91 f8 04 	lds	r24, 0x04F8
    472a:	90 91 f9 04 	lds	r25, 0x04F9
    472e:	49 97       	sbiw	r24, 0x19	; 25
    4730:	10 f6       	brcc	.-124    	; 0x46b6 <__vector_4+0x6a>
    4732:	cc cf       	rjmp	.-104    	; 0x46cc <__vector_4+0x80>
    4734:	80 91 f8 04 	lds	r24, 0x04F8
    4738:	90 91 f9 04 	lds	r25, 0x04F9
    473c:	90 93 03 05 	sts	0x0503, r25
    4740:	80 93 02 05 	sts	0x0502, r24
    4744:	81 e0       	ldi	r24, 0x01	; 1
    4746:	80 93 06 05 	sts	0x0506, r24
    474a:	ea e0       	ldi	r30, 0x0A	; 10
    474c:	f5 e0       	ldi	r31, 0x05	; 5
    474e:	80 81       	ld	r24, Z
    4750:	8f 5f       	subi	r24, 0xFF	; 255
    4752:	80 83       	st	Z, r24
    4754:	10 92 0b 05 	sts	0x050B, r1
    4758:	b9 cf       	rjmp	.-142    	; 0x46cc <__vector_4+0x80>
    475a:	10 92 fc 04 	sts	0x04FC, r1
    475e:	80 91 f8 04 	lds	r24, 0x04F8
    4762:	90 91 f9 04 	lds	r25, 0x04F9
    4766:	49 97       	sbiw	r24, 0x19	; 25
    4768:	08 f0       	brcs	.+2      	; 0x476c <__vector_4+0x120>
    476a:	b9 cf       	rjmp	.-142    	; 0x46de <__vector_4+0x92>
    476c:	c3 cf       	rjmp	.-122    	; 0x46f4 <__vector_4+0xa8>
    476e:	80 91 f8 04 	lds	r24, 0x04F8
    4772:	90 91 f9 04 	lds	r25, 0x04F9
    4776:	90 93 03 05 	sts	0x0503, r25
    477a:	80 93 02 05 	sts	0x0502, r24
    477e:	10 92 06 05 	sts	0x0506, r1
    4782:	eb e0       	ldi	r30, 0x0B	; 11
    4784:	f5 e0       	ldi	r31, 0x05	; 5
    4786:	80 81       	ld	r24, Z
    4788:	8f 5f       	subi	r24, 0xFF	; 255
    478a:	80 83       	st	Z, r24
    478c:	10 92 0a 05 	sts	0x050A, r1
    4790:	b1 cf       	rjmp	.-158    	; 0x46f4 <__vector_4+0xa8>
    4792:	ff 91       	pop	r31
    4794:	ef 91       	pop	r30
    4796:	bf 91       	pop	r27
    4798:	af 91       	pop	r26
    479a:	9f 91       	pop	r25
    479c:	8f 91       	pop	r24
    479e:	7f 91       	pop	r23
    47a0:	6f 91       	pop	r22
    47a2:	5f 91       	pop	r21
    47a4:	4f 91       	pop	r20
    47a6:	3f 91       	pop	r19
    47a8:	2f 91       	pop	r18
    47aa:	0f 90       	pop	r0
    47ac:	0f be       	out	0x3f, r0	; 63
    47ae:	0f 90       	pop	r0
    47b0:	1f 90       	pop	r1
    47b2:	18 95       	reti

000047b4 <setup>:
  // create breakout-example object!
 // Adafruit_VS1053_FilePlayer(BREAKOUT_RESET, BREAKOUT_CS, BREAKOUT_DCS, DREQ, CARDCS);
  // create shield-example object!
  Adafruit_VS1053_FilePlayer(SHIELD_RESET, SHIELD_CS, SHIELD_DCS, DREQ, CARDCS);
void setup() {
  Serial.begin(9600);
    47b4:	40 e8       	ldi	r20, 0x80	; 128
    47b6:	55 e2       	ldi	r21, 0x25	; 37
    47b8:	60 e0       	ldi	r22, 0x00	; 0
    47ba:	70 e0       	ldi	r23, 0x00	; 0
    47bc:	8c ec       	ldi	r24, 0xCC	; 204
    47be:	91 e0       	ldi	r25, 0x01	; 1
    47c0:	0e 94 86 03 	call	0x70c	; 0x70c <_ZN14HardwareSerial5beginEm>
  Serial.println("Adafruit VS1053 music player");
    47c4:	6f e3       	ldi	r22, 0x3F	; 63
    47c6:	71 e0       	ldi	r23, 0x01	; 1
    47c8:	8c ec       	ldi	r24, 0xCC	; 204
    47ca:	91 e0       	ldi	r25, 0x01	; 1
    47cc:	0e 94 4f 05 	call	0xa9e	; 0xa9e <_ZN5Print7printlnEPKc>

  if (! musicPlayer.begin()) { // initialise the music player
    47d0:	8c e0       	ldi	r24, 0x0C	; 12
    47d2:	95 e0       	ldi	r25, 0x05	; 5
    47d4:	0e 94 86 0c 	call	0x190c	; 0x190c <_ZN26Adafruit_VS1053_FilePlayer5beginEv>
    47d8:	81 11       	cpse	r24, r1
    47da:	07 c0       	rjmp	.+14     	; 0x47ea <setup+0x36>
     Serial.println(F("Couldn't find VS1053, do you have the right pins defined?"));
    47dc:	6b ef       	ldi	r22, 0xFB	; 251
    47de:	70 e0       	ldi	r23, 0x00	; 0
    47e0:	8c ec       	ldi	r24, 0xCC	; 204
    47e2:	91 e0       	ldi	r25, 0x01	; 1
    47e4:	0e 94 3d 05 	call	0xa7a	; 0xa7a <_ZN5Print7printlnEPK19__FlashStringHelper>
     while (1);
    47e8:	ff cf       	rjmp	.-2      	; 0x47e8 <setup+0x34>
  }
  Serial.println(F("VS1053 ready!"));
    47ea:	6d ee       	ldi	r22, 0xED	; 237
    47ec:	70 e0       	ldi	r23, 0x00	; 0
    47ee:	8c ec       	ldi	r24, 0xCC	; 204
    47f0:	91 e0       	ldi	r25, 0x01	; 1
    47f2:	0e 94 3d 05 	call	0xa7a	; 0xa7a <_ZN5Print7printlnEPK19__FlashStringHelper>
  
  delay(100); 
    47f6:	64 e6       	ldi	r22, 0x64	; 100
    47f8:	70 e0       	ldi	r23, 0x00	; 0
    47fa:	80 e0       	ldi	r24, 0x00	; 0
    47fc:	90 e0       	ldi	r25, 0x00	; 0
    47fe:	0e 94 7e 07 	call	0xefc	; 0xefc <delay>
  if (!SD.begin(CARDCS)) {
    4802:	69 e0       	ldi	r22, 0x09	; 9
    4804:	8c e9       	ldi	r24, 0x9C	; 156
    4806:	92 e0       	ldi	r25, 0x02	; 2
    4808:	0e 94 ef 0d 	call	0x1bde	; 0x1bde <_ZN5SDLib7SDClass5beginEh>
    480c:	81 11       	cpse	r24, r1
    480e:	07 c0       	rjmp	.+14     	; 0x481e <setup+0x6a>
	  Serial.println(F("SD failed, or not present"));
    4810:	63 ed       	ldi	r22, 0xD3	; 211
    4812:	70 e0       	ldi	r23, 0x00	; 0
    4814:	8c ec       	ldi	r24, 0xCC	; 204
    4816:	91 e0       	ldi	r25, 0x01	; 1
    4818:	0e 94 3d 05 	call	0xa7a	; 0xa7a <_ZN5Print7printlnEPK19__FlashStringHelper>
	  while (1);  // don't do anything more
    481c:	ff cf       	rjmp	.-2      	; 0x481c <setup+0x68>
  }
  Serial.println("SD OK!");
    481e:	6c e5       	ldi	r22, 0x5C	; 92
    4820:	71 e0       	ldi	r23, 0x01	; 1
    4822:	8c ec       	ldi	r24, 0xCC	; 204
    4824:	91 e0       	ldi	r25, 0x01	; 1
    4826:	0e 94 4f 05 	call	0xa9e	; 0xa9e <_ZN5Print7printlnEPKc>
  
  // Set volume for left, right channels. lower numbers == louder volume!
  musicPlayer.setVolume(20,20);
    482a:	44 e1       	ldi	r20, 0x14	; 20
    482c:	64 e1       	ldi	r22, 0x14	; 20
    482e:	8c e0       	ldi	r24, 0x0C	; 12
    4830:	95 e0       	ldi	r25, 0x05	; 5
    4832:	0e 94 e6 0b 	call	0x17cc	; 0x17cc <_ZN15Adafruit_VS10539setVolumeEhh>

  musicPlayer.useInterrupt(VS1053_FILEPLAYER_PIN_INT);  // DREQ int
    4836:	65 e0       	ldi	r22, 0x05	; 5
    4838:	8c e0       	ldi	r24, 0x0C	; 12
    483a:	95 e0       	ldi	r25, 0x05	; 5
    483c:	0e 94 b6 08 	call	0x116c	; 0x116c <_ZN26Adafruit_VS1053_FilePlayer12useInterruptEh>
  
  Encoder_S_initial(100);
    4840:	84 e6       	ldi	r24, 0x64	; 100
    4842:	90 e0       	ldi	r25, 0x00	; 0
    4844:	0e 94 fb 21 	call	0x43f6	; 0x43f6 <_Z17Encoder_S_initialj>
    4848:	08 95       	ret

0000484a <loop>:
}

void loop() {
	if( Encoder_S_get())
    484a:	0e 94 53 22 	call	0x44a6	; 0x44a6 <_Z13Encoder_S_getv>
    484e:	88 23       	and	r24, r24
    4850:	09 f4       	brne	.+2      	; 0x4854 <loop+0xa>
    4852:	5c c0       	rjmp	.+184    	; 0x490c <loop+0xc2>
	{
			switch (Encoder_S_get_num())
    4854:	0e 94 4a 22 	call	0x4494	; 0x4494 <_Z17Encoder_S_get_numv>
    4858:	83 30       	cpi	r24, 0x03	; 3
    485a:	11 f1       	breq	.+68     	; 0x48a0 <loop+0x56>
    485c:	2c f4       	brge	.+10     	; 0x4868 <loop+0x1e>
    485e:	81 30       	cpi	r24, 0x01	; 1
    4860:	49 f0       	breq	.+18     	; 0x4874 <loop+0x2a>
    4862:	82 30       	cpi	r24, 0x02	; 2
    4864:	91 f0       	breq	.+36     	; 0x488a <loop+0x40>
    4866:	48 c0       	rjmp	.+144    	; 0x48f8 <loop+0xae>
    4868:	85 30       	cpi	r24, 0x05	; 5
    486a:	81 f1       	breq	.+96     	; 0x48cc <loop+0x82>
    486c:	24 f1       	brlt	.+72     	; 0x48b6 <loop+0x6c>
    486e:	86 30       	cpi	r24, 0x06	; 6
    4870:	c1 f1       	breq	.+112    	; 0x48e2 <loop+0x98>
    4872:	42 c0       	rjmp	.+132    	; 0x48f8 <loop+0xae>
			{
				case 1:
				musicPlayer.stopPlaying();
    4874:	8c e0       	ldi	r24, 0x0C	; 12
    4876:	95 e0       	ldi	r25, 0x05	; 5
    4878:	0e 94 3e 0b 	call	0x167c	; 0x167c <_ZN26Adafruit_VS1053_FilePlayer11stopPlayingEv>
				musicPlayer.startPlayingFile("one.mp3");
    487c:	63 e6       	ldi	r22, 0x63	; 99
    487e:	71 e0       	ldi	r23, 0x01	; 1
    4880:	8c e0       	ldi	r24, 0x0C	; 12
    4882:	95 e0       	ldi	r25, 0x05	; 5
    4884:	0e 94 51 0b 	call	0x16a2	; 0x16a2 <_ZN26Adafruit_VS1053_FilePlayer16startPlayingFileEPKc>
				break;
    4888:	41 c0       	rjmp	.+130    	; 0x490c <loop+0xc2>
				case 2:
				musicPlayer.stopPlaying();
    488a:	8c e0       	ldi	r24, 0x0C	; 12
    488c:	95 e0       	ldi	r25, 0x05	; 5
    488e:	0e 94 3e 0b 	call	0x167c	; 0x167c <_ZN26Adafruit_VS1053_FilePlayer11stopPlayingEv>
				musicPlayer.startPlayingFile("two.mp3");
    4892:	6b e6       	ldi	r22, 0x6B	; 107
    4894:	71 e0       	ldi	r23, 0x01	; 1
    4896:	8c e0       	ldi	r24, 0x0C	; 12
    4898:	95 e0       	ldi	r25, 0x05	; 5
    489a:	0e 94 51 0b 	call	0x16a2	; 0x16a2 <_ZN26Adafruit_VS1053_FilePlayer16startPlayingFileEPKc>
				break;
    489e:	36 c0       	rjmp	.+108    	; 0x490c <loop+0xc2>
				
				case 3:
				musicPlayer.stopPlaying();
    48a0:	8c e0       	ldi	r24, 0x0C	; 12
    48a2:	95 e0       	ldi	r25, 0x05	; 5
    48a4:	0e 94 3e 0b 	call	0x167c	; 0x167c <_ZN26Adafruit_VS1053_FilePlayer11stopPlayingEv>
				musicPlayer.startPlayingFile("three.mp3");
    48a8:	63 e7       	ldi	r22, 0x73	; 115
    48aa:	71 e0       	ldi	r23, 0x01	; 1
    48ac:	8c e0       	ldi	r24, 0x0C	; 12
    48ae:	95 e0       	ldi	r25, 0x05	; 5
    48b0:	0e 94 51 0b 	call	0x16a2	; 0x16a2 <_ZN26Adafruit_VS1053_FilePlayer16startPlayingFileEPKc>
				break;
    48b4:	2b c0       	rjmp	.+86     	; 0x490c <loop+0xc2>
				
				case 4:
				musicPlayer.stopPlaying();
    48b6:	8c e0       	ldi	r24, 0x0C	; 12
    48b8:	95 e0       	ldi	r25, 0x05	; 5
    48ba:	0e 94 3e 0b 	call	0x167c	; 0x167c <_ZN26Adafruit_VS1053_FilePlayer11stopPlayingEv>
				musicPlayer.startPlayingFile("four.mp3");
    48be:	6d e7       	ldi	r22, 0x7D	; 125
    48c0:	71 e0       	ldi	r23, 0x01	; 1
    48c2:	8c e0       	ldi	r24, 0x0C	; 12
    48c4:	95 e0       	ldi	r25, 0x05	; 5
    48c6:	0e 94 51 0b 	call	0x16a2	; 0x16a2 <_ZN26Adafruit_VS1053_FilePlayer16startPlayingFileEPKc>
				break;
    48ca:	20 c0       	rjmp	.+64     	; 0x490c <loop+0xc2>
				
				case 5:
				musicPlayer.stopPlaying();
    48cc:	8c e0       	ldi	r24, 0x0C	; 12
    48ce:	95 e0       	ldi	r25, 0x05	; 5
    48d0:	0e 94 3e 0b 	call	0x167c	; 0x167c <_ZN26Adafruit_VS1053_FilePlayer11stopPlayingEv>
				musicPlayer.startPlayingFile("five.mp3");
    48d4:	66 e8       	ldi	r22, 0x86	; 134
    48d6:	71 e0       	ldi	r23, 0x01	; 1
    48d8:	8c e0       	ldi	r24, 0x0C	; 12
    48da:	95 e0       	ldi	r25, 0x05	; 5
    48dc:	0e 94 51 0b 	call	0x16a2	; 0x16a2 <_ZN26Adafruit_VS1053_FilePlayer16startPlayingFileEPKc>
				
				break;
    48e0:	15 c0       	rjmp	.+42     	; 0x490c <loop+0xc2>
				
				case 6:
				musicPlayer.stopPlaying();
    48e2:	8c e0       	ldi	r24, 0x0C	; 12
    48e4:	95 e0       	ldi	r25, 0x05	; 5
    48e6:	0e 94 3e 0b 	call	0x167c	; 0x167c <_ZN26Adafruit_VS1053_FilePlayer11stopPlayingEv>
				musicPlayer.startPlayingFile("six.mp3");
    48ea:	6f e8       	ldi	r22, 0x8F	; 143
    48ec:	71 e0       	ldi	r23, 0x01	; 1
    48ee:	8c e0       	ldi	r24, 0x0C	; 12
    48f0:	95 e0       	ldi	r25, 0x05	; 5
    48f2:	0e 94 51 0b 	call	0x16a2	; 0x16a2 <_ZN26Adafruit_VS1053_FilePlayer16startPlayingFileEPKc>
				break;
    48f6:	0a c0       	rjmp	.+20     	; 0x490c <loop+0xc2>
				
				default:
				musicPlayer.stopPlaying();
    48f8:	8c e0       	ldi	r24, 0x0C	; 12
    48fa:	95 e0       	ldi	r25, 0x05	; 5
    48fc:	0e 94 3e 0b 	call	0x167c	; 0x167c <_ZN26Adafruit_VS1053_FilePlayer11stopPlayingEv>
				musicPlayer.startPlayingFile("wait.mp3");
    4900:	67 e9       	ldi	r22, 0x97	; 151
    4902:	71 e0       	ldi	r23, 0x01	; 1
    4904:	8c e0       	ldi	r24, 0x0C	; 12
    4906:	95 e0       	ldi	r25, 0x05	; 5
    4908:	0e 94 51 0b 	call	0x16a2	; 0x16a2 <_ZN26Adafruit_VS1053_FilePlayer16startPlayingFileEPKc>
				break;
			}
	}
	delay(10);
    490c:	6a e0       	ldi	r22, 0x0A	; 10
    490e:	70 e0       	ldi	r23, 0x00	; 0
    4910:	80 e0       	ldi	r24, 0x00	; 0
    4912:	90 e0       	ldi	r25, 0x00	; 0
    4914:	0e 94 7e 07 	call	0xefc	; 0xefc <delay>
    4918:	08 95       	ret

0000491a <_GLOBAL__sub_I_temp>:
		else _stage = false;
	}
	_temp_file.close();
	_position = 0;
	return	false;
}
    491a:	ef 92       	push	r14
    491c:	0f 93       	push	r16
#define sensor2 A1

boolean Encoder_S_get(void);
boolean PlayNext(void);

 File temp;
    491e:	81 e9       	ldi	r24, 0x91	; 145
    4920:	95 e0       	ldi	r25, 0x05	; 5
    4922:	0e 94 61 0d 	call	0x1ac2	; 0x1ac2 <_ZN5SDLib4FileC1Ev>
 long _position;
int _sensor_val;

Adafruit_VS1053_FilePlayer musicPlayer = 
    4926:	0f 2e       	mov	r0, r31
    4928:	f9 e0       	ldi	r31, 0x09	; 9
    492a:	ef 2e       	mov	r14, r31
    492c:	f0 2d       	mov	r31, r0
    492e:	02 e0       	ldi	r16, 0x02	; 2
    4930:	27 e0       	ldi	r18, 0x07	; 7
    4932:	46 e0       	ldi	r20, 0x06	; 6
    4934:	68 e0       	ldi	r22, 0x08	; 8
    4936:	8c e0       	ldi	r24, 0x0C	; 12
    4938:	95 e0       	ldi	r25, 0x05	; 5
    493a:	0e 94 e8 08 	call	0x11d0	; 0x11d0 <_ZN26Adafruit_VS1053_FilePlayerC1Eaaaaa>
		else _stage = false;
	}
	_temp_file.close();
	_position = 0;
	return	false;
}
    493e:	0f 91       	pop	r16
    4940:	ef 90       	pop	r14
    4942:	08 95       	ret

00004944 <__udivmodsi4>:
    4944:	a1 e2       	ldi	r26, 0x21	; 33
    4946:	1a 2e       	mov	r1, r26
    4948:	aa 1b       	sub	r26, r26
    494a:	bb 1b       	sub	r27, r27
    494c:	fd 01       	movw	r30, r26
    494e:	0d c0       	rjmp	.+26     	; 0x496a <__udivmodsi4_ep>

00004950 <__udivmodsi4_loop>:
    4950:	aa 1f       	adc	r26, r26
    4952:	bb 1f       	adc	r27, r27
    4954:	ee 1f       	adc	r30, r30
    4956:	ff 1f       	adc	r31, r31
    4958:	a2 17       	cp	r26, r18
    495a:	b3 07       	cpc	r27, r19
    495c:	e4 07       	cpc	r30, r20
    495e:	f5 07       	cpc	r31, r21
    4960:	20 f0       	brcs	.+8      	; 0x496a <__udivmodsi4_ep>
    4962:	a2 1b       	sub	r26, r18
    4964:	b3 0b       	sbc	r27, r19
    4966:	e4 0b       	sbc	r30, r20
    4968:	f5 0b       	sbc	r31, r21

0000496a <__udivmodsi4_ep>:
    496a:	66 1f       	adc	r22, r22
    496c:	77 1f       	adc	r23, r23
    496e:	88 1f       	adc	r24, r24
    4970:	99 1f       	adc	r25, r25
    4972:	1a 94       	dec	r1
    4974:	69 f7       	brne	.-38     	; 0x4950 <__udivmodsi4_loop>
    4976:	60 95       	com	r22
    4978:	70 95       	com	r23
    497a:	80 95       	com	r24
    497c:	90 95       	com	r25
    497e:	9b 01       	movw	r18, r22
    4980:	ac 01       	movw	r20, r24
    4982:	bd 01       	movw	r22, r26
    4984:	cf 01       	movw	r24, r30
    4986:	08 95       	ret

00004988 <__divmodsi4>:
    4988:	05 2e       	mov	r0, r21
    498a:	97 fb       	bst	r25, 7
    498c:	1e f4       	brtc	.+6      	; 0x4994 <__divmodsi4+0xc>
    498e:	00 94       	com	r0
    4990:	0e 94 db 24 	call	0x49b6	; 0x49b6 <__negsi2>
    4994:	57 fd       	sbrc	r21, 7
    4996:	07 d0       	rcall	.+14     	; 0x49a6 <__divmodsi4_neg2>
    4998:	0e 94 a2 24 	call	0x4944	; 0x4944 <__udivmodsi4>
    499c:	07 fc       	sbrc	r0, 7
    499e:	03 d0       	rcall	.+6      	; 0x49a6 <__divmodsi4_neg2>
    49a0:	4e f4       	brtc	.+18     	; 0x49b4 <__divmodsi4_exit>
    49a2:	0c 94 db 24 	jmp	0x49b6	; 0x49b6 <__negsi2>

000049a6 <__divmodsi4_neg2>:
    49a6:	50 95       	com	r21
    49a8:	40 95       	com	r20
    49aa:	30 95       	com	r19
    49ac:	21 95       	neg	r18
    49ae:	3f 4f       	sbci	r19, 0xFF	; 255
    49b0:	4f 4f       	sbci	r20, 0xFF	; 255
    49b2:	5f 4f       	sbci	r21, 0xFF	; 255

000049b4 <__divmodsi4_exit>:
    49b4:	08 95       	ret

000049b6 <__negsi2>:
    49b6:	90 95       	com	r25
    49b8:	80 95       	com	r24
    49ba:	70 95       	com	r23
    49bc:	61 95       	neg	r22
    49be:	7f 4f       	sbci	r23, 0xFF	; 255
    49c0:	8f 4f       	sbci	r24, 0xFF	; 255
    49c2:	9f 4f       	sbci	r25, 0xFF	; 255
    49c4:	08 95       	ret

000049c6 <__muluhisi3>:
    49c6:	0e 94 f4 24 	call	0x49e8	; 0x49e8 <__umulhisi3>
    49ca:	a5 9f       	mul	r26, r21
    49cc:	90 0d       	add	r25, r0
    49ce:	b4 9f       	mul	r27, r20
    49d0:	90 0d       	add	r25, r0
    49d2:	a4 9f       	mul	r26, r20
    49d4:	80 0d       	add	r24, r0
    49d6:	91 1d       	adc	r25, r1
    49d8:	11 24       	eor	r1, r1
    49da:	08 95       	ret

000049dc <__tablejump2__>:
    49dc:	ee 0f       	add	r30, r30
    49de:	ff 1f       	adc	r31, r31
    49e0:	05 90       	lpm	r0, Z+
    49e2:	f4 91       	lpm	r31, Z
    49e4:	e0 2d       	mov	r30, r0
    49e6:	09 94       	ijmp

000049e8 <__umulhisi3>:
    49e8:	a2 9f       	mul	r26, r18
    49ea:	b0 01       	movw	r22, r0
    49ec:	b3 9f       	mul	r27, r19
    49ee:	c0 01       	movw	r24, r0
    49f0:	a3 9f       	mul	r26, r19
    49f2:	70 0d       	add	r23, r0
    49f4:	81 1d       	adc	r24, r1
    49f6:	11 24       	eor	r1, r1
    49f8:	91 1d       	adc	r25, r1
    49fa:	b2 9f       	mul	r27, r18
    49fc:	70 0d       	add	r23, r0
    49fe:	81 1d       	adc	r24, r1
    4a00:	11 24       	eor	r1, r1
    4a02:	91 1d       	adc	r25, r1
    4a04:	08 95       	ret

00004a06 <memcmp>:
    4a06:	fb 01       	movw	r30, r22
    4a08:	dc 01       	movw	r26, r24
    4a0a:	04 c0       	rjmp	.+8      	; 0x4a14 <memcmp+0xe>
    4a0c:	8d 91       	ld	r24, X+
    4a0e:	01 90       	ld	r0, Z+
    4a10:	80 19       	sub	r24, r0
    4a12:	21 f4       	brne	.+8      	; 0x4a1c <memcmp+0x16>
    4a14:	41 50       	subi	r20, 0x01	; 1
    4a16:	50 40       	sbci	r21, 0x00	; 0
    4a18:	c8 f7       	brcc	.-14     	; 0x4a0c <memcmp+0x6>
    4a1a:	88 1b       	sub	r24, r24
    4a1c:	99 0b       	sbc	r25, r25
    4a1e:	08 95       	ret

00004a20 <strchr>:
    4a20:	fc 01       	movw	r30, r24
    4a22:	81 91       	ld	r24, Z+
    4a24:	86 17       	cp	r24, r22
    4a26:	21 f0       	breq	.+8      	; 0x4a30 <strchr+0x10>
    4a28:	88 23       	and	r24, r24
    4a2a:	d9 f7       	brne	.-10     	; 0x4a22 <strchr+0x2>
    4a2c:	99 27       	eor	r25, r25
    4a2e:	08 95       	ret
    4a30:	31 97       	sbiw	r30, 0x01	; 1
    4a32:	cf 01       	movw	r24, r30
    4a34:	08 95       	ret

00004a36 <strncpy>:
    4a36:	fb 01       	movw	r30, r22
    4a38:	dc 01       	movw	r26, r24
    4a3a:	41 50       	subi	r20, 0x01	; 1
    4a3c:	50 40       	sbci	r21, 0x00	; 0
    4a3e:	48 f0       	brcs	.+18     	; 0x4a52 <strncpy+0x1c>
    4a40:	01 90       	ld	r0, Z+
    4a42:	0d 92       	st	X+, r0
    4a44:	00 20       	and	r0, r0
    4a46:	c9 f7       	brne	.-14     	; 0x4a3a <strncpy+0x4>
    4a48:	01 c0       	rjmp	.+2      	; 0x4a4c <strncpy+0x16>
    4a4a:	1d 92       	st	X+, r1
    4a4c:	41 50       	subi	r20, 0x01	; 1
    4a4e:	50 40       	sbci	r21, 0x00	; 0
    4a50:	e0 f7       	brcc	.-8      	; 0x4a4a <strncpy+0x14>
    4a52:	08 95       	ret

00004a54 <_exit>:
    4a54:	f8 94       	cli

00004a56 <__stop_program>:
    4a56:	ff cf       	rjmp	.-2      	; 0x4a56 <__stop_program>
